(lp0
cnumpy.core.multiarray
scalar
p1
(cnumpy
dtype
p2
(S'S10'
p3
I0
I1
tp4
Rp5
(I3
S'|'
p6
NNNI10
I1
I0
tp7
bS'FZD6_HUMAN'
p8
tp9
Rp10
ag1
(g2
(S'S11'
p11
I0
I1
tp12
Rp13
(I3
S'|'
p14
NNNI11
I1
I0
tp15
bS'GABR2_HUMAN'
p16
tp17
Rp18
ag1
(g2
(S'S10'
p19
I0
I1
tp20
Rp21
(I3
S'|'
p22
NNNI10
I1
I0
tp23
bS'FZD3_HUMAN'
p24
tp25
Rp26
ag1
(g2
(S'S11'
p27
I0
I1
tp28
Rp29
(I3
S'|'
p30
NNNI11
I1
I0
tp31
bS'GP176_HUMAN'
p32
tp33
Rp34
ag1
(g2
(S'S11'
p35
I0
I1
tp36
Rp37
(I3
S'|'
p38
NNNI11
I1
I0
tp39
bS'GP156_HUMAN'
p40
tp41
Rp42
ag1
(g2
(S'S11'
p43
I0
I1
tp44
Rp45
(I3
S'|'
p46
NNNI11
I1
I0
tp47
bS'GP179_HUMAN'
p48
tp49
Rp50
ag1
(g2
(S'S11'
p51
I0
I1
tp52
Rp53
(I3
S'|'
p54
NNNI11
I1
I0
tp55
bS'GP158_HUMAN'
p56
tp57
Rp58
ag1
(g2
(S'S11'
p59
I0
I1
tp60
Rp61
(I3
S'|'
p62
NNNI11
I1
I0
tp63
bS'GP152_HUMAN'
p64
tp65
Rp66
ag1
(g2
(S'S11'
p67
I0
I1
tp68
Rp69
(I3
S'|'
p70
NNNI11
I1
I0
tp71
bS'GP153_HUMAN'
p72
tp73
Rp74
ag1
(g2
(S'S11'
p75
I0
I1
tp76
Rp77
(I3
S'|'
p78
NNNI11
I1
I0
tp79
bS'GP135_HUMAN'
p80
tp81
Rp82
ag1
(g2
(S'S11'
p83
I0
I1
tp84
Rp85
(I3
S'|'
p86
NNNI11
I1
I0
tp87
bS'GPR98_HUMAN'
p88
tp89
Rp90
ag1
(g2
(S'S10'
p91
I0
I1
tp92
Rp93
(I3
S'|'
p94
NNNI10
I1
I0
tp95
bS'GRM5_HUMAN'
p96
tp97
Rp98
ag1
(g2
(S'S10'
p99
I0
I1
tp100
Rp101
(I3
S'|'
p102
NNNI10
I1
I0
tp103
bS'GRM1_HUMAN'
p104
tp105
Rp106
ag1
(g2
(S'S9'
p107
I0
I1
tp108
Rp109
(I3
S'|'
p110
NNNI9
I1
I0
tp111
bS'SMO_HUMAN'
p112
tp113
Rp114
ag1
(g2
(S'S11'
p115
I0
I1
tp116
Rp117
(I3
S'|'
p118
NNNI11
I1
I0
tp119
bS'AGRB2_HUMAN'
p120
tp121
Rp122
ag1
(g2
(S'S11'
p123
I0
I1
tp124
Rp125
(I3
S'|'
p126
NNNI11
I1
I0
tp127
bS'AGRB3_HUMAN'
p128
tp129
Rp130
ag1
(g2
(S'S11'
p131
I0
I1
tp132
Rp133
(I3
S'|'
p134
NNNI11
I1
I0
tp135
bS'AGRL2_HUMAN'
p136
tp137
Rp138
ag1
(g2
(S'S11'
p139
I0
I1
tp140
Rp141
(I3
S'|'
p142
NNNI11
I1
I0
tp143
bS'AGRL1_HUMAN'
p144
tp145
Rp146
ag1
(g2
(S'S11'
p147
I0
I1
tp148
Rp149
(I3
S'|'
p150
NNNI11
I1
I0
tp151
bS'AGRL3_HUMAN'
p152
tp153
Rp154
ag1
(g2
(S'S10'
p155
I0
I1
tp156
Rp157
(I3
S'|'
p158
NNNI10
I1
I0
tp159
bS'BAI1_HUMAN'
p160
tp161
Rp162
ag1
(g2
(S'S10'
p163
I0
I1
tp164
Rp165
(I3
S'|'
p166
NNNI10
I1
I0
tp167
bS'CASR_HUMAN'
p168
tp169
Rp170
ag1
(g2
(S'S11'
p171
I0
I1
tp172
Rp173
(I3
S'|'
p174
NNNI11
I1
I0
tp175
bS'CELR1_HUMAN'
p176
tp177
Rp178
ag1
(g2
(S'S11'
p179
I0
I1
tp180
Rp181
(I3
S'|'
p182
NNNI11
I1
I0
tp183
bS'CELR3_HUMAN'
p184
tp185
Rp186
ag1
(g2
(S'S11'
p187
I0
I1
tp188
Rp189
(I3
S'|'
p190
NNNI11
I1
I0
tp191
bS'CELR2_HUMAN'
p192
tp193
Rp194
ag1
(g2
(S'S11'
p195
I0
I1
tp196
Rp197
(I3
S'|'
p198
NNNI11
I1
I0
tp199
bS'MTR1L_HUMAN'
p200
tp201
Rp202
a.