(lp0
cnumpy.core.multiarray
scalar
p1
(cnumpy
dtype
p2
(S'S11'
p3
I0
I1
tp4
Rp5
(I3
S'|'
p6
NNNI11
I1
I0
tp7
bS'GP149_HUMAN'
p8
tp9
Rp10
ag1
(g2
(S'S11'
p11
I0
I1
tp12
Rp13
(I3
S'|'
p14
NNNI11
I1
I0
tp15
bS'GP161_HUMAN'
p16
tp17
Rp18
ag1
(g2
(S'S11'
p19
I0
I1
tp20
Rp21
(I3
S'|'
p22
NNNI11
I1
I0
tp23
bS'GPR75_HUMAN'
p24
tp25
Rp26
ag1
(g2
(S'S11'
p27
I0
I1
tp28
Rp29
(I3
S'|'
p30
NNNI11
I1
I0
tp31
bS'GP162_HUMAN'
p32
tp33
Rp34
ag1
(g2
(S'S11'
p35
I0
I1
tp36
Rp37
(I3
S'|'
p38
NNNI11
I1
I0
tp39
bS'PE2R4_HUMAN'
p40
tp41
Rp42
ag1
(g2
(S'S11'
p43
I0
I1
tp44
Rp45
(I3
S'|'
p46
NNNI11
I1
I0
tp47
bS'AGRA1_HUMAN'
p48
tp49
Rp50
ag1
(g2
(S'S11'
p51
I0
I1
tp52
Rp53
(I3
S'|'
p54
NNNI11
I1
I0
tp55
bS'AGRA2_HUMAN'
p56
tp57
Rp58
ag1
(g2
(S'S11'
p59
I0
I1
tp60
Rp61
(I3
S'|'
p62
NNNI11
I1
I0
tp63
bS'ADA1D_HUMAN'
p64
tp65
Rp66
ag1
(g2
(S'S11'
p67
I0
I1
tp68
Rp69
(I3
S'|'
p70
NNNI11
I1
I0
tp71
bS'ADA1B_HUMAN'
p72
tp73
Rp74
ag1
(g2
(S'S11'
p75
I0
I1
tp76
Rp77
(I3
S'|'
p78
NNNI11
I1
I0
tp79
bS'AGRA3_HUMAN'
p80
tp81
Rp82
a.