(lp0
cnumpy.core.multiarray
scalar
p1
(cnumpy
dtype
p2
(S'S10'
p3
I0
I1
tp4
Rp5
(I3
S'|'
p6
NNNI10
I1
I0
tp7
bS'HRH3_HUMAN'
p8
tp9
Rp10
ag1
(g2
(S'S10'
p11
I0
I1
tp12
Rp13
(I3
S'|'
p14
NNNI10
I1
I0
tp15
bS'HRH4_HUMAN'
p16
tp17
Rp18
ag1
(g2
(S'S11'
p19
I0
I1
tp20
Rp21
(I3
S'|'
p22
NNNI11
I1
I0
tp23
bS'VN1R5_HUMAN'
p24
tp25
Rp26
ag1
(g2
(S'S10'
p27
I0
I1
tp28
Rp29
(I3
S'|'
p30
NNNI10
I1
I0
tp31
bS'DRD2_HUMAN'
p32
tp33
Rp34
ag1
(g2
(S'S10'
p35
I0
I1
tp36
Rp37
(I3
S'|'
p38
NNNI10
I1
I0
tp39
bS'GASR_HUMAN'
p40
tp41
Rp42
ag1
(g2
(S'S11'
p43
I0
I1
tp44
Rp45
(I3
S'|'
p46
NNNI11
I1
I0
tp47
bS'GPR26_HUMAN'
p48
tp49
Rp50
ag1
(g2
(S'S11'
p51
I0
I1
tp52
Rp53
(I3
S'|'
p54
NNNI11
I1
I0
tp55
bS'GP101_HUMAN'
p56
tp57
Rp58
ag1
(g2
(S'S11'
p59
I0
I1
tp60
Rp61
(I3
S'|'
p62
NNNI11
I1
I0
tp63
bS'GP173_HUMAN'
p64
tp65
Rp66
ag1
(g2
(S'S11'
p67
I0
I1
tp68
Rp69
(I3
S'|'
p70
NNNI11
I1
I0
tp71
bS'GPR61_HUMAN'
p72
tp73
Rp74
ag1
(g2
(S'S11'
p75
I0
I1
tp76
Rp77
(I3
S'|'
p78
NNNI11
I1
I0
tp79
bS'GPR22_HUMAN'
p80
tp81
Rp82
ag1
(g2
(S'S11'
p83
I0
I1
tp84
Rp85
(I3
S'|'
p86
NNNI11
I1
I0
tp87
bS'GPR27_HUMAN'
p88
tp89
Rp90
ag1
(g2
(S'S11'
p91
I0
I1
tp92
Rp93
(I3
S'|'
p94
NNNI11
I1
I0
tp95
bS'GPR85_HUMAN'
p96
tp97
Rp98
ag1
(g2
(S'S11'
p99
I0
I1
tp100
Rp101
(I3
S'|'
p102
NNNI11
I1
I0
tp103
bS'GPR88_HUMAN'
p104
tp105
Rp106
ag1
(g2
(S'S11'
p107
I0
I1
tp108
Rp109
(I3
S'|'
p110
NNNI11
I1
I0
tp111
bS'GPR84_HUMAN'
p112
tp113
Rp114
ag1
(g2
(S'S11'
p115
I0
I1
tp116
Rp117
(I3
S'|'
p118
NNNI11
I1
I0
tp119
bS'PE2R1_HUMAN'
p120
tp121
Rp122
ag1
(g2
(S'S10'
p123
I0
I1
tp124
Rp125
(I3
S'|'
p126
NNNI10
I1
I0
tp127
bS'V1BR_HUMAN'
p128
tp129
Rp130
ag1
(g2
(S'S11'
p131
I0
I1
tp132
Rp133
(I3
S'|'
p134
NNNI11
I1
I0
tp135
bS'5HT1A_HUMAN'
p136
tp137
Rp138
ag1
(g2
(S'S11'
p139
I0
I1
tp140
Rp141
(I3
S'|'
p142
NNNI11
I1
I0
tp143
bS'5HT2C_HUMAN'
p144
tp145
Rp146
ag1
(g2
(S'S11'
p147
I0
I1
tp148
Rp149
(I3
S'|'
p150
NNNI11
I1
I0
tp151
bS'5HT5A_HUMAN'
p152
tp153
Rp154
ag1
(g2
(S'S10'
p155
I0
I1
tp156
Rp157
(I3
S'|'
p158
NNNI10
I1
I0
tp159
bS'ACM3_HUMAN'
p160
tp161
Rp162
ag1
(g2
(S'S11'
p163
I0
I1
tp164
Rp165
(I3
S'|'
p166
NNNI11
I1
I0
tp167
bS'5HT1B_HUMAN'
p168
tp169
Rp170
ag1
(g2
(S'S11'
p171
I0
I1
tp172
Rp173
(I3
S'|'
p174
NNNI11
I1
I0
tp175
bS'5HT1E_HUMAN'
p176
tp177
Rp178
ag1
(g2
(S'S11'
p179
I0
I1
tp180
Rp181
(I3
S'|'
p182
NNNI11
I1
I0
tp183
bS'5HT2B_HUMAN'
p184
tp185
Rp186
ag1
(g2
(S'S11'
p187
I0
I1
tp188
Rp189
(I3
S'|'
p190
NNNI11
I1
I0
tp191
bS'5HT7R_HUMAN'
p192
tp193
Rp194
ag1
(g2
(S'S11'
p195
I0
I1
tp196
Rp197
(I3
S'|'
p198
NNNI11
I1
I0
tp199
bS'5HT1D_HUMAN'
p200
tp201
Rp202
ag1
(g2
(S'S11'
p203
I0
I1
tp204
Rp205
(I3
S'|'
p206
NNNI11
I1
I0
tp207
bS'5HT1F_HUMAN'
p208
tp209
Rp210
ag1
(g2
(S'S11'
p211
I0
I1
tp212
Rp213
(I3
S'|'
p214
NNNI11
I1
I0
tp215
bS'5HT6R_HUMAN'
p216
tp217
Rp218
ag1
(g2
(S'S11'
p219
I0
I1
tp220
Rp221
(I3
S'|'
p222
NNNI11
I1
I0
tp223
bS'ADRB3_HUMAN'
p224
tp225
Rp226
ag1
(g2
(S'S11'
p227
I0
I1
tp228
Rp229
(I3
S'|'
p230
NNNI11
I1
I0
tp231
bS'5HT2A_HUMAN'
p232
tp233
Rp234
ag1
(g2
(S'S10'
p235
I0
I1
tp236
Rp237
(I3
S'|'
p238
NNNI10
I1
I0
tp239
bS'ACM1_HUMAN'
p240
tp241
Rp242
ag1
(g2
(S'S10'
p243
I0
I1
tp244
Rp245
(I3
S'|'
p246
NNNI10
I1
I0
tp247
bS'ACM4_HUMAN'
p248
tp249
Rp250
ag1
(g2
(S'S11'
p251
I0
I1
tp252
Rp253
(I3
S'|'
p254
NNNI11
I1
I0
tp255
bS'ADA2C_HUMAN'
p256
tp257
Rp258
ag1
(g2
(S'S11'
p259
I0
I1
tp260
Rp261
(I3
S'|'
p262
NNNI11
I1
I0
tp263
bS'ADRB1_HUMAN'
p264
tp265
Rp266
ag1
(g2
(S'S10'
p267
I0
I1
tp268
Rp269
(I3
S'|'
p270
NNNI10
I1
I0
tp271
bS'ACM2_HUMAN'
p272
tp273
Rp274
ag1
(g2
(S'S10'
p275
I0
I1
tp276
Rp277
(I3
S'|'
p278
NNNI10
I1
I0
tp279
bS'ACM5_HUMAN'
p280
tp281
Rp282
ag1
(g2
(S'S11'
p283
I0
I1
tp284
Rp285
(I3
S'|'
p286
NNNI11
I1
I0
tp287
bS'ADA2A_HUMAN'
p288
tp289
Rp290
ag1
(g2
(S'S11'
p291
I0
I1
tp292
Rp293
(I3
S'|'
p294
NNNI11
I1
I0
tp295
bS'ADA1A_HUMAN'
p296
tp297
Rp298
ag1
(g2
(S'S11'
p299
I0
I1
tp300
Rp301
(I3
S'|'
p302
NNNI11
I1
I0
tp303
bS'ADA2B_HUMAN'
p304
tp305
Rp306
ag1
(g2
(S'S11'
p307
I0
I1
tp308
Rp309
(I3
S'|'
p310
NNNI11
I1
I0
tp311
bS'CCKAR_HUMAN'
p312
tp313
Rp314
ag1
(g2
(S'S10'
p315
I0
I1
tp316
Rp317
(I3
S'|'
p318
NNNI10
I1
I0
tp319
bS'DRD4_HUMAN'
p320
tp321
Rp322
ag1
(g2
(S'S10'
p323
I0
I1
tp324
Rp325
(I3
S'|'
p326
NNNI10
I1
I0
tp327
bS'DRD3_HUMAN'
p328
tp329
Rp330
ag1
(g2
(S'S11'
p331
I0
I1
tp332
Rp333
(I3
S'|'
p334
NNNI11
I1
I0
tp335
bS'FFAR4_HUMAN'
p336
tp337
Rp338
ag1
(g2
(S'S10'
p339
I0
I1
tp340
Rp341
(I3
S'|'
p342
NNNI10
I1
I0
tp343
bS'HRH1_HUMAN'
p344
tp345
Rp346
ag1
(g2
(S'S11'
p347
I0
I1
tp348
Rp349
(I3
S'|'
p350
NNNI11
I1
I0
tp351
bS'NPY5R_HUMAN'
p352
tp353
Rp354
ag1
(g2
(S'S10'
p355
I0
I1
tp356
Rp357
(I3
S'|'
p358
NNNI10
I1
I0
tp359
bS'NTR2_HUMAN'
p360
tp361
Rp362
ag1
(g2
(S'S10'
p363
I0
I1
tp364
Rp365
(I3
S'|'
p366
NNNI10
I1
I0
tp367
bS'OX1R_HUMAN'
p368
tp369
Rp370
ag1
(g2
(S'S10'
p371
I0
I1
tp372
Rp373
(I3
S'|'
p374
NNNI10
I1
I0
tp375
bS'OX2R_HUMAN'
p376
tp377
Rp378
a.