(lp0
cnumpy.core.multiarray
scalar
p1
(cnumpy
dtype
p2
(S'S11'
p3
I0
I1
tp4
Rp5
(I3
S'|'
p6
NNNI11
I1
I0
tp7
bS'GPER1_HUMAN'
p8
tp9
Rp10
ag1
(g2
(S'S11'
p11
I0
I1
tp12
Rp13
(I3
S'|'
p14
NNNI11
I1
I0
tp15
bS'FFAR2_HUMAN'
p16
tp17
Rp18
ag1
(g2
(S'S10'
p19
I0
I1
tp20
Rp21
(I3
S'|'
p22
NNNI10
I1
I0
tp23
bS'RAI3_HUMAN'
p24
tp25
Rp26
ag1
(g2
(S'S11'
p27
I0
I1
tp28
Rp29
(I3
S'|'
p30
NNNI11
I1
I0
tp31
bS'GP160_HUMAN'
p32
tp33
Rp34
ag1
(g2
(S'S11'
p35
I0
I1
tp36
Rp37
(I3
S'|'
p38
NNNI11
I1
I0
tp39
bS'GPC6A_HUMAN'
p40
tp41
Rp42
ag1
(g2
(S'S11'
p43
I0
I1
tp44
Rp45
(I3
S'|'
p46
NNNI11
I1
I0
tp47
bS'RL3R1_HUMAN'
p48
tp49
Rp50
ag1
(g2
(S'S11'
p51
I0
I1
tp52
Rp53
(I3
S'|'
p54
NNNI11
I1
I0
tp55
bS'CLTR2_HUMAN'
p56
tp57
Rp58
ag1
(g2
(S'S11'
p59
I0
I1
tp60
Rp61
(I3
S'|'
p62
NNNI11
I1
I0
tp63
bS'RL3R2_HUMAN'
p64
tp65
Rp66
ag1
(g2
(S'S11'
p67
I0
I1
tp68
Rp69
(I3
S'|'
p70
NNNI11
I1
I0
tp71
bS'O51E1_HUMAN'
p72
tp73
Rp74
ag1
(g2
(S'S11'
p75
I0
I1
tp76
Rp77
(I3
S'|'
p78
NNNI11
I1
I0
tp79
bS'GPBAR_HUMAN'
p80
tp81
Rp82
ag1
(g2
(S'S11'
p83
I0
I1
tp84
Rp85
(I3
S'|'
p86
NNNI11
I1
I0
tp87
bS'OXGR1_HUMAN'
p88
tp89
Rp90
ag1
(g2
(S'S11'
p91
I0
I1
tp92
Rp93
(I3
S'|'
p94
NNNI11
I1
I0
tp95
bS'VN1R1_HUMAN'
p96
tp97
Rp98
ag1
(g2
(S'S11'
p99
I0
I1
tp100
Rp101
(I3
S'|'
p102
NNNI11
I1
I0
tp103
bS'G32P1_HUMAN'
p104
tp105
Rp106
ag1
(g2
(S'S11'
p107
I0
I1
tp108
Rp109
(I3
S'|'
p110
NNNI11
I1
I0
tp111
bS'VN1R4_HUMAN'
p112
tp113
Rp114
ag1
(g2
(S'S11'
p115
I0
I1
tp116
Rp117
(I3
S'|'
p118
NNNI11
I1
I0
tp119
bS'CXCR4_HUMAN'
p120
tp121
Rp122
ag1
(g2
(S'S11'
p123
I0
I1
tp124
Rp125
(I3
S'|'
p126
NNNI11
I1
I0
tp127
bS'GPR62_HUMAN'
p128
tp129
Rp130
ag1
(g2
(S'S11'
p131
I0
I1
tp132
Rp133
(I3
S'|'
p134
NNNI11
I1
I0
tp135
bS'GP151_HUMAN'
p136
tp137
Rp138
ag1
(g2
(S'S11'
p139
I0
I1
tp140
Rp141
(I3
S'|'
p142
NNNI11
I1
I0
tp143
bS'GP148_HUMAN'
p144
tp145
Rp146
ag1
(g2
(S'S11'
p147
I0
I1
tp148
Rp149
(I3
S'|'
p150
NNNI11
I1
I0
tp151
bS'VN1R2_HUMAN'
p152
tp153
Rp154
ag1
(g2
(S'S10'
p155
I0
I1
tp156
Rp157
(I3
S'|'
p158
NNNI10
I1
I0
tp159
bS'FPR3_HUMAN'
p160
tp161
Rp162
ag1
(g2
(S'S10'
p163
I0
I1
tp164
Rp165
(I3
S'|'
p166
NNNI10
I1
I0
tp167
bS'FZD9_HUMAN'
p168
tp169
Rp170
ag1
(g2
(S'S10'
p171
I0
I1
tp172
Rp173
(I3
S'|'
p174
NNNI10
I1
I0
tp175
bS'FZD7_HUMAN'
p176
tp177
Rp178
ag1
(g2
(S'S10'
p179
I0
I1
tp180
Rp181
(I3
S'|'
p182
NNNI10
I1
I0
tp183
bS'FPR2_HUMAN'
p184
tp185
Rp186
ag1
(g2
(S'S10'
p187
I0
I1
tp188
Rp189
(I3
S'|'
p190
NNNI10
I1
I0
tp191
bS'FPR1_HUMAN'
p192
tp193
Rp194
ag1
(g2
(S'S10'
p195
I0
I1
tp196
Rp197
(I3
S'|'
p198
NNNI10
I1
I0
tp199
bS'FSHR_HUMAN'
p200
tp201
Rp202
ag1
(g2
(S'S10'
p203
I0
I1
tp204
Rp205
(I3
S'|'
p206
NNNI10
I1
I0
tp207
bS'FZD2_HUMAN'
p208
tp209
Rp210
ag1
(g2
(S'S10'
p211
I0
I1
tp212
Rp213
(I3
S'|'
p214
NNNI10
I1
I0
tp215
bS'FZD8_HUMAN'
p216
tp217
Rp218
ag1
(g2
(S'S11'
p219
I0
I1
tp220
Rp221
(I3
S'|'
p222
NNNI11
I1
I0
tp223
bS'GABR1_HUMAN'
p224
tp225
Rp226
ag1
(g2
(S'S11'
p227
I0
I1
tp228
Rp229
(I3
S'|'
p230
NNNI11
I1
I0
tp231
bS'GALR3_HUMAN'
p232
tp233
Rp234
ag1
(g2
(S'S11'
p235
I0
I1
tp236
Rp237
(I3
S'|'
p238
NNNI11
I1
I0
tp239
bS'FZD10_HUMAN'
p240
tp241
Rp242
ag1
(g2
(S'S10'
p243
I0
I1
tp244
Rp245
(I3
S'|'
p246
NNNI10
I1
I0
tp247
bS'FZD1_HUMAN'
p248
tp249
Rp250
ag1
(g2
(S'S10'
p251
I0
I1
tp252
Rp253
(I3
S'|'
p254
NNNI10
I1
I0
tp255
bS'FZD4_HUMAN'
p256
tp257
Rp258
ag1
(g2
(S'S11'
p259
I0
I1
tp260
Rp261
(I3
S'|'
p262
NNNI11
I1
I0
tp263
bS'GALR2_HUMAN'
p264
tp265
Rp266
ag1
(g2
(S'S11'
p267
I0
I1
tp268
Rp269
(I3
S'|'
p270
NNNI11
I1
I0
tp271
bS'GHRHR_HUMAN'
p272
tp273
Rp274
ag1
(g2
(S'S11'
p275
I0
I1
tp276
Rp277
(I3
S'|'
p278
NNNI11
I1
I0
tp279
bS'GALR1_HUMAN'
p280
tp281
Rp282
ag1
(g2
(S'S10'
p283
I0
I1
tp284
Rp285
(I3
S'|'
p286
NNNI10
I1
I0
tp287
bS'FZD5_HUMAN'
p288
tp289
Rp290
ag1
(g2
(S'S10'
p291
I0
I1
tp292
Rp293
(I3
S'|'
p294
NNNI10
I1
I0
tp295
bS'GIPR_HUMAN'
p296
tp297
Rp298
ag1
(g2
(S'S11'
p299
I0
I1
tp300
Rp301
(I3
S'|'
p302
NNNI11
I1
I0
tp303
bS'GP132_HUMAN'
p304
tp305
Rp306
ag1
(g2
(S'S11'
p307
I0
I1
tp308
Rp309
(I3
S'|'
p310
NNNI11
I1
I0
tp311
bS'GP182_HUMAN'
p312
tp313
Rp314
ag1
(g2
(S'S11'
p315
I0
I1
tp316
Rp317
(I3
S'|'
p318
NNNI11
I1
I0
tp319
bS'GP183_HUMAN'
p320
tp321
Rp322
ag1
(g2
(S'S11'
p323
I0
I1
tp324
Rp325
(I3
S'|'
p326
NNNI11
I1
I0
tp327
bS'GLP2R_HUMAN'
p328
tp329
Rp330
ag1
(g2
(S'S11'
p331
I0
I1
tp332
Rp333
(I3
S'|'
p334
NNNI11
I1
I0
tp335
bS'GLP1R_HUMAN'
p336
tp337
Rp338
ag1
(g2
(S'S11'
p339
I0
I1
tp340
Rp341
(I3
S'|'
p342
NNNI11
I1
I0
tp343
bS'GP174_HUMAN'
p344
tp345
Rp346
ag1
(g2
(S'S11'
p347
I0
I1
tp348
Rp349
(I3
S'|'
p350
NNNI11
I1
I0
tp351
bS'GPR32_HUMAN'
p352
tp353
Rp354
ag1
(g2
(S'S11'
p355
I0
I1
tp356
Rp357
(I3
S'|'
p358
NNNI11
I1
I0
tp359
bS'GPR35_HUMAN'
p360
tp361
Rp362
ag1
(g2
(S'S11'
p363
I0
I1
tp364
Rp365
(I3
S'|'
p366
NNNI11
I1
I0
tp367
bS'GPR55_HUMAN'
p368
tp369
Rp370
ag1
(g2
(S'S10'
p371
I0
I1
tp372
Rp373
(I3
S'|'
p374
NNNI10
I1
I0
tp375
bS'GPR6_HUMAN'
p376
tp377
Rp378
ag1
(g2
(S'S11'
p379
I0
I1
tp380
Rp381
(I3
S'|'
p382
NNNI11
I1
I0
tp383
bS'GNRHR_HUMAN'
p384
tp385
Rp386
ag1
(g2
(S'S11'
p387
I0
I1
tp388
Rp389
(I3
S'|'
p390
NNNI11
I1
I0
tp391
bS'GNRR2_HUMAN'
p392
tp393
Rp394
ag1
(g2
(S'S11'
p395
I0
I1
tp396
Rp397
(I3
S'|'
p398
NNNI11
I1
I0
tp399
bS'GP142_HUMAN'
p400
tp401
Rp402
ag1
(g2
(S'S11'
p403
I0
I1
tp404
Rp405
(I3
S'|'
p406
NNNI11
I1
I0
tp407
bS'GP143_HUMAN'
p408
tp409
Rp410
ag1
(g2
(S'S11'
p411
I0
I1
tp412
Rp413
(I3
S'|'
p414
NNNI11
I1
I0
tp415
bS'GPR15_HUMAN'
p416
tp417
Rp418
ag1
(g2
(S'S10'
p419
I0
I1
tp420
Rp421
(I3
S'|'
p422
NNNI10
I1
I0
tp423
bS'GRM6_HUMAN'
p424
tp425
Rp426
ag1
(g2
(S'S11'
p427
I0
I1
tp428
Rp429
(I3
S'|'
p430
NNNI11
I1
I0
tp431
bS'GP119_HUMAN'
p432
tp433
Rp434
ag1
(g2
(S'S11'
p435
I0
I1
tp436
Rp437
(I3
S'|'
p438
NNNI11
I1
I0
tp439
bS'GP141_HUMAN'
p440
tp441
Rp442
ag1
(g2
(S'S11'
p443
I0
I1
tp444
Rp445
(I3
S'|'
p446
NNNI11
I1
I0
tp447
bS'GP146_HUMAN'
p448
tp449
Rp450
ag1
(g2
(S'S11'
p451
I0
I1
tp452
Rp453
(I3
S'|'
p454
NNNI11
I1
I0
tp455
bS'GP171_HUMAN'
p456
tp457
Rp458
ag1
(g2
(S'S11'
p459
I0
I1
tp460
Rp461
(I3
S'|'
p462
NNNI11
I1
I0
tp463
bS'GPC5D_HUMAN'
p464
tp465
Rp466
ag1
(g2
(S'S10'
p467
I0
I1
tp468
Rp469
(I3
S'|'
p470
NNNI10
I1
I0
tp471
bS'GRM2_HUMAN'
p472
tp473
Rp474
ag1
(g2
(S'S10'
p475
I0
I1
tp476
Rp477
(I3
S'|'
p478
NNNI10
I1
I0
tp479
bS'GRM3_HUMAN'
p480
tp481
Rp482
ag1
(g2
(S'S9'
p483
I0
I1
tp484
Rp485
(I3
S'|'
p486
NNNI9
I1
I0
tp487
bS'GLR_HUMAN'
p488
tp489
Rp490
ag1
(g2
(S'S11'
p491
I0
I1
tp492
Rp493
(I3
S'|'
p494
NNNI11
I1
I0
tp495
bS'GPR31_HUMAN'
p496
tp497
Rp498
ag1
(g2
(S'S11'
p499
I0
I1
tp500
Rp501
(I3
S'|'
p502
NNNI11
I1
I0
tp503
bS'GPR45_HUMAN'
p504
tp505
Rp506
ag1
(g2
(S'S10'
p507
I0
I1
tp508
Rp509
(I3
S'|'
p510
NNNI10
I1
I0
tp511
bS'GPR4_HUMAN'
p512
tp513
Rp514
ag1
(g2
(S'S10'
p515
I0
I1
tp516
Rp517
(I3
S'|'
p518
NNNI10
I1
I0
tp519
bS'GHSR_HUMAN'
p520
tp521
Rp522
ag1
(g2
(S'S11'
p523
I0
I1
tp524
Rp525
(I3
S'|'
p526
NNNI11
I1
I0
tp527
bS'GPR33_HUMAN'
p528
tp529
Rp530
ag1
(g2
(S'S10'
p531
I0
I1
tp532
Rp533
(I3
S'|'
p534
NNNI10
I1
I0
tp535
bS'GRPR_HUMAN'
p536
tp537
Rp538
ag1
(g2
(S'S11'
p539
I0
I1
tp540
Rp541
(I3
S'|'
p542
NNNI11
I1
I0
tp543
bS'GP150_HUMAN'
p544
tp545
Rp546
ag1
(g2
(S'S11'
p547
I0
I1
tp548
Rp549
(I3
S'|'
p550
NNNI11
I1
I0
tp551
bS'GPC5B_HUMAN'
p552
tp553
Rp554
ag1
(g2
(S'S11'
p555
I0
I1
tp556
Rp557
(I3
S'|'
p558
NNNI11
I1
I0
tp559
bS'GPR12_HUMAN'
p560
tp561
Rp562
ag1
(g2
(S'S11'
p563
I0
I1
tp564
Rp565
(I3
S'|'
p566
NNNI11
I1
I0
tp567
bS'GPR19_HUMAN'
p568
tp569
Rp570
ag1
(g2
(S'S11'
p571
I0
I1
tp572
Rp573
(I3
S'|'
p574
NNNI11
I1
I0
tp575
bS'GPR18_HUMAN'
p576
tp577
Rp578
ag1
(g2
(S'S11'
p579
I0
I1
tp580
Rp581
(I3
S'|'
p582
NNNI11
I1
I0
tp583
bS'GPR25_HUMAN'
p584
tp585
Rp586
ag1
(g2
(S'S11'
p587
I0
I1
tp588
Rp589
(I3
S'|'
p590
NNNI11
I1
I0
tp591
bS'GP139_HUMAN'
p592
tp593
Rp594
ag1
(g2
(S'S11'
p595
I0
I1
tp596
Rp597
(I3
S'|'
p598
NNNI11
I1
I0
tp599
bS'HCAR3_HUMAN'
p600
tp601
Rp602
ag1
(g2
(S'S11'
p603
I0
I1
tp604
Rp605
(I3
S'|'
p606
NNNI11
I1
I0
tp607
bS'GPR20_HUMAN'
p608
tp609
Rp610
ag1
(g2
(S'S11'
p611
I0
I1
tp612
Rp613
(I3
S'|'
p614
NNNI11
I1
I0
tp615
bS'GPR39_HUMAN'
p616
tp617
Rp618
ag1
(g2
(S'S11'
p619
I0
I1
tp620
Rp621
(I3
S'|'
p622
NNNI11
I1
I0
tp623
bS'GPR63_HUMAN'
p624
tp625
Rp626
ag1
(g2
(S'S11'
p627
I0
I1
tp628
Rp629
(I3
S'|'
p630
NNNI11
I1
I0
tp631
bS'GPR83_HUMAN'
p632
tp633
Rp634
ag1
(g2
(S'S11'
p635
I0
I1
tp636
Rp637
(I3
S'|'
p638
NNNI11
I1
I0
tp639
bS'GPR17_HUMAN'
p640
tp641
Rp642
ag1
(g2
(S'S10'
p643
I0
I1
tp644
Rp645
(I3
S'|'
p646
NNNI10
I1
I0
tp647
bS'GPR1_HUMAN'
p648
tp649
Rp650
ag1
(g2
(S'S11'
p651
I0
I1
tp652
Rp653
(I3
S'|'
p654
NNNI11
I1
I0
tp655
bS'GPR34_HUMAN'
p656
tp657
Rp658
ag1
(g2
(S'S10'
p659
I0
I1
tp660
Rp661
(I3
S'|'
p662
NNNI10
I1
I0
tp663
bS'GPR3_HUMAN'
p664
tp665
Rp666
ag1
(g2
(S'S10'
p667
I0
I1
tp668
Rp669
(I3
S'|'
p670
NNNI10
I1
I0
tp671
bS'GRM7_HUMAN'
p672
tp673
Rp674
ag1
(g2
(S'S10'
p675
I0
I1
tp676
Rp677
(I3
S'|'
p678
NNNI10
I1
I0
tp679
bS'GRM8_HUMAN'
p680
tp681
Rp682
ag1
(g2
(S'S10'
p683
I0
I1
tp684
Rp685
(I3
S'|'
p686
NNNI10
I1
I0
tp687
bS'GRM4_HUMAN'
p688
tp689
Rp690
ag1
(g2
(S'S11'
p691
I0
I1
tp692
Rp693
(I3
S'|'
p694
NNNI11
I1
I0
tp695
bS'HCAR1_HUMAN'
p696
tp697
Rp698
ag1
(g2
(S'S11'
p699
I0
I1
tp700
Rp701
(I3
S'|'
p702
NNNI11
I1
I0
tp703
bS'GP157_HUMAN'
p704
tp705
Rp706
ag1
(g2
(S'S11'
p707
I0
I1
tp708
Rp709
(I3
S'|'
p710
NNNI11
I1
I0
tp711
bS'GPR21_HUMAN'
p712
tp713
Rp714
ag1
(g2
(S'S11'
p715
I0
I1
tp716
Rp717
(I3
S'|'
p718
NNNI11
I1
I0
tp719
bS'GPR37_HUMAN'
p720
tp721
Rp722
ag1
(g2
(S'S11'
p723
I0
I1
tp724
Rp725
(I3
S'|'
p726
NNNI11
I1
I0
tp727
bS'GPR42_HUMAN'
p728
tp729
Rp730
ag1
(g2
(S'S11'
p731
I0
I1
tp732
Rp733
(I3
S'|'
p734
NNNI11
I1
I0
tp735
bS'GPR52_HUMAN'
p736
tp737
Rp738
ag1
(g2
(S'S11'
p739
I0
I1
tp740
Rp741
(I3
S'|'
p742
NNNI11
I1
I0
tp743
bS'GPR87_HUMAN'
p744
tp745
Rp746
ag1
(g2
(S'S11'
p747
I0
I1
tp748
Rp749
(I3
S'|'
p750
NNNI11
I1
I0
tp751
bS'HCAR2_HUMAN'
p752
tp753
Rp754
ag1
(g2
(S'S10'
p755
I0
I1
tp756
Rp757
(I3
S'|'
p758
NNNI10
I1
I0
tp759
bS'HRH2_HUMAN'
p760
tp761
Rp762
ag1
(g2
(S'S11'
p763
I0
I1
tp764
Rp765
(I3
S'|'
p766
NNNI11
I1
I0
tp767
bS'KISSR_HUMAN'
p768
tp769
Rp770
ag1
(g2
(S'S11'
p771
I0
I1
tp772
Rp773
(I3
S'|'
p774
NNNI11
I1
I0
tp775
bS'LPAR6_HUMAN'
p776
tp777
Rp778
ag1
(g2
(S'S11'
p779
I0
I1
tp780
Rp781
(I3
S'|'
p782
NNNI11
I1
I0
tp783
bS'LPAR5_HUMAN'
p784
tp785
Rp786
ag1
(g2
(S'S10'
p787
I0
I1
tp788
Rp789
(I3
S'|'
p790
NNNI10
I1
I0
tp791
bS'LGR5_HUMAN'
p792
tp793
Rp794
ag1
(g2
(S'S11'
p795
I0
I1
tp796
Rp797
(I3
S'|'
p798
NNNI11
I1
I0
tp799
bS'LPAR2_HUMAN'
p800
tp801
Rp802
ag1
(g2
(S'S11'
p803
I0
I1
tp804
Rp805
(I3
S'|'
p806
NNNI11
I1
I0
tp807
bS'LPAR3_HUMAN'
p808
tp809
Rp810
ag1
(g2
(S'S11'
p811
I0
I1
tp812
Rp813
(I3
S'|'
p814
NNNI11
I1
I0
tp815
bS'LT4R2_HUMAN'
p816
tp817
Rp818
ag1
(g2
(S'S11'
p819
I0
I1
tp820
Rp821
(I3
S'|'
p822
NNNI11
I1
I0
tp823
bS'LPAR4_HUMAN'
p824
tp825
Rp826
ag1
(g2
(S'S9'
p827
I0
I1
tp828
Rp829
(I3
S'|'
p830
NNNI9
I1
I0
tp831
bS'MAS_HUMAN'
p832
tp833
Rp834
ag1
(g2
(S'S11'
p835
I0
I1
tp836
Rp837
(I3
S'|'
p838
NNNI11
I1
I0
tp839
bS'MCHR1_HUMAN'
p840
tp841
Rp842
ag1
(g2
(S'S11'
p843
I0
I1
tp844
Rp845
(I3
S'|'
p846
NNNI11
I1
I0
tp847
bS'MCHR2_HUMAN'
p848
tp849
Rp850
ag1
(g2
(S'S11'
p851
I0
I1
tp852
Rp853
(I3
S'|'
p854
NNNI11
I1
I0
tp855
bS'MAS1L_HUMAN'
p856
tp857
Rp858
ag1
(g2
(S'S10'
p859
I0
I1
tp860
Rp861
(I3
S'|'
p862
NNNI10
I1
I0
tp863
bS'MC4R_HUMAN'
p864
tp865
Rp866
ag1
(g2
(S'S11'
p867
I0
I1
tp868
Rp869
(I3
S'|'
p870
NNNI11
I1
I0
tp871
bS'MRGX4_HUMAN'
p872
tp873
Rp874
ag1
(g2
(S'S10'
p875
I0
I1
tp876
Rp877
(I3
S'|'
p878
NNNI10
I1
I0
tp879
bS'MSHR_HUMAN'
p880
tp881
Rp882
ag1
(g2
(S'S11'
p883
I0
I1
tp884
Rp885
(I3
S'|'
p886
NNNI11
I1
I0
tp887
bS'MRGX1_HUMAN'
p888
tp889
Rp890
ag1
(g2
(S'S11'
p891
I0
I1
tp892
Rp893
(I3
S'|'
p894
NNNI11
I1
I0
tp895
bS'MRGRE_HUMAN'
p896
tp897
Rp898
ag1
(g2
(S'S11'
p899
I0
I1
tp900
Rp901
(I3
S'|'
p902
NNNI11
I1
I0
tp903
bS'MTR1B_HUMAN'
p904
tp905
Rp906
ag1
(g2
(S'S11'
p907
I0
I1
tp908
Rp909
(I3
S'|'
p910
NNNI11
I1
I0
tp911
bS'MRGRD_HUMAN'
p912
tp913
Rp914
ag1
(g2
(S'S11'
p915
I0
I1
tp916
Rp917
(I3
S'|'
p918
NNNI11
I1
I0
tp919
bS'MRGRF_HUMAN'
p920
tp921
Rp922
ag1
(g2
(S'S11'
p923
I0
I1
tp924
Rp925
(I3
S'|'
p926
NNNI11
I1
I0
tp927
bS'MRGRG_HUMAN'
p928
tp929
Rp930
ag1
(g2
(S'S11'
p931
I0
I1
tp932
Rp933
(I3
S'|'
p934
NNNI11
I1
I0
tp935
bS'MRGX2_HUMAN'
p936
tp937
Rp938
ag1
(g2
(S'S11'
p939
I0
I1
tp940
Rp941
(I3
S'|'
p942
NNNI11
I1
I0
tp943
bS'MRGX3_HUMAN'
p944
tp945
Rp946
ag1
(g2
(S'S11'
p947
I0
I1
tp948
Rp949
(I3
S'|'
p950
NNNI11
I1
I0
tp951
bS'NPY2R_HUMAN'
p952
tp953
Rp954
ag1
(g2
(S'S11'
p955
I0
I1
tp956
Rp957
(I3
S'|'
p958
NNNI11
I1
I0
tp959
bS'NPBW1_HUMAN'
p960
tp961
Rp962
ag1
(g2
(S'S11'
p963
I0
I1
tp964
Rp965
(I3
S'|'
p966
NNNI11
I1
I0
tp967
bS'NMUR2_HUMAN'
p968
tp969
Rp970
ag1
(g2
(S'S10'
p971
I0
I1
tp972
Rp973
(I3
S'|'
p974
NNNI10
I1
I0
tp975
bS'NMBR_HUMAN'
p976
tp977
Rp978
ag1
(g2
(S'S10'
p979
I0
I1
tp980
Rp981
(I3
S'|'
p982
NNNI10
I1
I0
tp983
bS'NK2R_HUMAN'
p984
tp985
Rp986
ag1
(g2
(S'S10'
p987
I0
I1
tp988
Rp989
(I3
S'|'
p990
NNNI10
I1
I0
tp991
bS'PAR4_HUMAN'
p992
tp993
Rp994
ag1
(g2
(S'S11'
p995
I0
I1
tp996
Rp997
(I3
S'|'
p998
NNNI11
I1
I0
tp999
bS'PE2R2_HUMAN'
p1000
tp1001
Rp1002
ag1
(g2
(S'S10'
p1003
I0
I1
tp1004
Rp1005
(I3
S'|'
p1006
NNNI10
I1
I0
tp1007
bS'PAR1_HUMAN'
p1008
tp1009
Rp1010
ag1
(g2
(S'S10'
p1011
I0
I1
tp1012
Rp1013
(I3
S'|'
p1014
NNNI10
I1
I0
tp1015
bS'PAR2_HUMAN'
p1016
tp1017
Rp1018
ag1
(g2
(S'S10'
p1019
I0
I1
tp1020
Rp1021
(I3
S'|'
p1022
NNNI10
I1
I0
tp1023
bS'PF2R_HUMAN'
p1024
tp1025
Rp1026
ag1
(g2
(S'S11'
p1027
I0
I1
tp1028
Rp1029
(I3
S'|'
p1030
NNNI11
I1
I0
tp1031
bS'PD2R2_HUMAN'
p1032
tp1033
Rp1034
ag1
(g2
(S'S11'
p1035
I0
I1
tp1036
Rp1037
(I3
S'|'
p1038
NNNI11
I1
I0
tp1039
bS'PE2R3_HUMAN'
p1040
tp1041
Rp1042
ag1
(g2
(S'S10'
p1043
I0
I1
tp1044
Rp1045
(I3
S'|'
p1046
NNNI10
I1
I0
tp1047
bS'PKR2_HUMAN'
p1048
tp1049
Rp1050
ag1
(g2
(S'S10'
p1051
I0
I1
tp1052
Rp1053
(I3
S'|'
p1054
NNNI10
I1
I0
tp1055
bS'PI2R_HUMAN'
p1056
tp1057
Rp1058
ag1
(g2
(S'S10'
p1059
I0
I1
tp1060
Rp1061
(I3
S'|'
p1062
NNNI10
I1
I0
tp1063
bS'PKR1_HUMAN'
p1064
tp1065
Rp1066
ag1
(g2
(S'S11'
p1067
I0
I1
tp1068
Rp1069
(I3
S'|'
p1070
NNNI11
I1
I0
tp1071
bS'PTAFR_HUMAN'
p1072
tp1073
Rp1074
ag1
(g2
(S'S11'
p1075
I0
I1
tp1076
Rp1077
(I3
S'|'
p1078
NNNI11
I1
I0
tp1079
bS'PTH1R_HUMAN'
p1080
tp1081
Rp1082
ag1
(g2
(S'S11'
p1083
I0
I1
tp1084
Rp1085
(I3
S'|'
p1086
NNNI11
I1
I0
tp1087
bS'PRLHR_HUMAN'
p1088
tp1089
Rp1090
ag1
(g2
(S'S11'
p1091
I0
I1
tp1092
Rp1093
(I3
S'|'
p1094
NNNI11
I1
I0
tp1095
bS'QRFPR_HUMAN'
p1096
tp1097
Rp1098
ag1
(g2
(S'S9'
p1099
I0
I1
tp1100
Rp1101
(I3
S'|'
p1102
NNNI9
I1
I0
tp1103
bS'RGR_HUMAN'
p1104
tp1105
Rp1106
ag1
(g2
(S'S10'
p1107
I0
I1
tp1108
Rp1109
(I3
S'|'
p1110
NNNI10
I1
I0
tp1111
bS'SSR3_HUMAN'
p1112
tp1113
Rp1114
ag1
(g2
(S'S10'
p1115
I0
I1
tp1116
Rp1117
(I3
S'|'
p1118
NNNI10
I1
I0
tp1119
bS'SSR1_HUMAN'
p1120
tp1121
Rp1122
ag1
(g2
(S'S10'
p1123
I0
I1
tp1124
Rp1125
(I3
S'|'
p1126
NNNI10
I1
I0
tp1127
bS'SSR2_HUMAN'
p1128
tp1129
Rp1130
ag1
(g2
(S'S10'
p1131
I0
I1
tp1132
Rp1133
(I3
S'|'
p1134
NNNI10
I1
I0
tp1135
bS'SSR4_HUMAN'
p1136
tp1137
Rp1138
ag1
(g2
(S'S10'
p1139
I0
I1
tp1140
Rp1141
(I3
S'|'
p1142
NNNI10
I1
I0
tp1143
bS'SSR5_HUMAN'
p1144
tp1145
Rp1146
ag1
(g2
(S'S10'
p1147
I0
I1
tp1148
Rp1149
(I3
S'|'
p1150
NNNI10
I1
I0
tp1151
bS'TSHR_HUMAN'
p1152
tp1153
Rp1154
ag1
(g2
(S'S11'
p1155
I0
I1
tp1156
Rp1157
(I3
S'|'
p1158
NNNI11
I1
I0
tp1159
bS'TS1R3_HUMAN'
p1160
tp1161
Rp1162
ag1
(g2
(S'S10'
p1163
I0
I1
tp1164
Rp1165
(I3
S'|'
p1166
NNNI10
I1
I0
tp1167
bS'TRFR_HUMAN'
p1168
tp1169
Rp1170
ag1
(g2
(S'S11'
p1171
I0
I1
tp1172
Rp1173
(I3
S'|'
p1174
NNNI11
I1
I0
tp1175
bS'TS1R2_HUMAN'
p1176
tp1177
Rp1178
ag1
(g2
(S'S11'
p1179
I0
I1
tp1180
Rp1181
(I3
S'|'
p1182
NNNI11
I1
I0
tp1183
bS'TS1R1_HUMAN'
p1184
tp1185
Rp1186
ag1
(g2
(S'S10'
p1187
I0
I1
tp1188
Rp1189
(I3
S'|'
p1190
NNNI10
I1
I0
tp1191
bS'UR2R_HUMAN'
p1192
tp1193
Rp1194
ag1
(g2
(S'S9'
p1195
I0
I1
tp1196
Rp1197
(I3
S'|'
p1198
NNNI9
I1
I0
tp1199
bS'V2R_HUMAN'
p1200
tp1201
Rp1202
ag1
(g2
(S'S11'
p1203
I0
I1
tp1204
Rp1205
(I3
S'|'
p1206
NNNI11
I1
I0
tp1207
bS'VIPR2_HUMAN'
p1208
tp1209
Rp1210
ag1
(g2
(S'S11'
p1211
I0
I1
tp1212
Rp1213
(I3
S'|'
p1214
NNNI11
I1
I0
tp1215
bS'VIPR1_HUMAN'
p1216
tp1217
Rp1218
ag1
(g2
(S'S11'
p1219
I0
I1
tp1220
Rp1221
(I3
S'|'
p1222
NNNI11
I1
I0
tp1223
bS'VN1R3_HUMAN'
p1224
tp1225
Rp1226
ag1
(g2
(S'S10'
p1227
I0
I1
tp1228
Rp1229
(I3
S'|'
p1230
NNNI10
I1
I0
tp1231
bS'XCR1_HUMAN'
p1232
tp1233
Rp1234
ag1
(g2
(S'S11'
p1235
I0
I1
tp1236
Rp1237
(I3
S'|'
p1238
NNNI11
I1
I0
tp1239
bS'VNRL4_HUMAN'
p1240
tp1241
Rp1242
ag1
(g2
(S'S11'
p1243
I0
I1
tp1244
Rp1245
(I3
S'|'
p1246
NNNI11
I1
I0
tp1247
bS'ACKR2_HUMAN'
p1248
tp1249
Rp1250
ag1
(g2
(S'S11'
p1251
I0
I1
tp1252
Rp1253
(I3
S'|'
p1254
NNNI11
I1
I0
tp1255
bS'ACKR1_HUMAN'
p1256
tp1257
Rp1258
ag1
(g2
(S'S11'
p1259
I0
I1
tp1260
Rp1261
(I3
S'|'
p1262
NNNI11
I1
I0
tp1263
bS'ACKR3_HUMAN'
p1264
tp1265
Rp1266
ag1
(g2
(S'S10'
p1267
I0
I1
tp1268
Rp1269
(I3
S'|'
p1270
NNNI10
I1
I0
tp1271
bS'AA1R_HUMAN'
p1272
tp1273
Rp1274
ag1
(g2
(S'S10'
p1275
I0
I1
tp1276
Rp1277
(I3
S'|'
p1278
NNNI10
I1
I0
tp1279
bS'AA3R_HUMAN'
p1280
tp1281
Rp1282
ag1
(g2
(S'S11'
p1283
I0
I1
tp1284
Rp1285
(I3
S'|'
p1286
NNNI11
I1
I0
tp1287
bS'5HT4R_HUMAN'
p1288
tp1289
Rp1290
ag1
(g2
(S'S11'
p1291
I0
I1
tp1292
Rp1293
(I3
S'|'
p1294
NNNI11
I1
I0
tp1295
bS'AA2AR_HUMAN'
p1296
tp1297
Rp1298
ag1
(g2
(S'S11'
p1299
I0
I1
tp1300
Rp1301
(I3
S'|'
p1302
NNNI11
I1
I0
tp1303
bS'AA2BR_HUMAN'
p1304
tp1305
Rp1306
ag1
(g2
(S'S11'
p1307
I0
I1
tp1308
Rp1309
(I3
S'|'
p1310
NNNI11
I1
I0
tp1311
bS'ACKR4_HUMAN'
p1312
tp1313
Rp1314
ag1
(g2
(S'S11'
p1315
I0
I1
tp1316
Rp1317
(I3
S'|'
p1318
NNNI11
I1
I0
tp1319
bS'ACTHR_HUMAN'
p1320
tp1321
Rp1322
ag1
(g2
(S'S11'
p1323
I0
I1
tp1324
Rp1325
(I3
S'|'
p1326
NNNI11
I1
I0
tp1327
bS'AGRG5_HUMAN'
p1328
tp1329
Rp1330
ag1
(g2
(S'S11'
p1331
I0
I1
tp1332
Rp1333
(I3
S'|'
p1334
NNNI11
I1
I0
tp1335
bS'AGRG7_HUMAN'
p1336
tp1337
Rp1338
ag1
(g2
(S'S11'
p1339
I0
I1
tp1340
Rp1341
(I3
S'|'
p1342
NNNI11
I1
I0
tp1343
bS'AGRE1_HUMAN'
p1344
tp1345
Rp1346
ag1
(g2
(S'S11'
p1347
I0
I1
tp1348
Rp1349
(I3
S'|'
p1350
NNNI11
I1
I0
tp1351
bS'AGRF3_HUMAN'
p1352
tp1353
Rp1354
ag1
(g2
(S'S11'
p1355
I0
I1
tp1356
Rp1357
(I3
S'|'
p1358
NNNI11
I1
I0
tp1359
bS'AGRF5_HUMAN'
p1360
tp1361
Rp1362
ag1
(g2
(S'S11'
p1363
I0
I1
tp1364
Rp1365
(I3
S'|'
p1366
NNNI11
I1
I0
tp1367
bS'AGRG3_HUMAN'
p1368
tp1369
Rp1370
ag1
(g2
(S'S11'
p1371
I0
I1
tp1372
Rp1373
(I3
S'|'
p1374
NNNI11
I1
I0
tp1375
bS'AGRG6_HUMAN'
p1376
tp1377
Rp1378
ag1
(g2
(S'S11'
p1379
I0
I1
tp1380
Rp1381
(I3
S'|'
p1382
NNNI11
I1
I0
tp1383
bS'AGRE2_HUMAN'
p1384
tp1385
Rp1386
ag1
(g2
(S'S11'
p1387
I0
I1
tp1388
Rp1389
(I3
S'|'
p1390
NNNI11
I1
I0
tp1391
bS'AGRF2_HUMAN'
p1392
tp1393
Rp1394
ag1
(g2
(S'S11'
p1395
I0
I1
tp1396
Rp1397
(I3
S'|'
p1398
NNNI11
I1
I0
tp1399
bS'AGRG4_HUMAN'
p1400
tp1401
Rp1402
ag1
(g2
(S'S11'
p1403
I0
I1
tp1404
Rp1405
(I3
S'|'
p1406
NNNI11
I1
I0
tp1407
bS'AGRD1_HUMAN'
p1408
tp1409
Rp1410
ag1
(g2
(S'S11'
p1411
I0
I1
tp1412
Rp1413
(I3
S'|'
p1414
NNNI11
I1
I0
tp1415
bS'AGRE3_HUMAN'
p1416
tp1417
Rp1418
ag1
(g2
(S'S11'
p1419
I0
I1
tp1420
Rp1421
(I3
S'|'
p1422
NNNI11
I1
I0
tp1423
bS'AGRF4_HUMAN'
p1424
tp1425
Rp1426
ag1
(g2
(S'S11'
p1427
I0
I1
tp1428
Rp1429
(I3
S'|'
p1430
NNNI11
I1
I0
tp1431
bS'AGTR1_HUMAN'
p1432
tp1433
Rp1434
ag1
(g2
(S'S11'
p1435
I0
I1
tp1436
Rp1437
(I3
S'|'
p1438
NNNI11
I1
I0
tp1439
bS'AGTR2_HUMAN'
p1440
tp1441
Rp1442
ag1
(g2
(S'S11'
p1443
I0
I1
tp1444
Rp1445
(I3
S'|'
p1446
NNNI11
I1
I0
tp1447
bS'AGRD2_HUMAN'
p1448
tp1449
Rp1450
ag1
(g2
(S'S11'
p1451
I0
I1
tp1452
Rp1453
(I3
S'|'
p1454
NNNI11
I1
I0
tp1455
bS'AGRE4_HUMAN'
p1456
tp1457
Rp1458
ag1
(g2
(S'S11'
p1459
I0
I1
tp1460
Rp1461
(I3
S'|'
p1462
NNNI11
I1
I0
tp1463
bS'AGRF1_HUMAN'
p1464
tp1465
Rp1466
ag1
(g2
(S'S11'
p1467
I0
I1
tp1468
Rp1469
(I3
S'|'
p1470
NNNI11
I1
I0
tp1471
bS'AGRG1_HUMAN'
p1472
tp1473
Rp1474
ag1
(g2
(S'S11'
p1475
I0
I1
tp1476
Rp1477
(I3
S'|'
p1478
NNNI11
I1
I0
tp1479
bS'AGRL4_HUMAN'
p1480
tp1481
Rp1482
ag1
(g2
(S'S9'
p1483
I0
I1
tp1484
Rp1485
(I3
S'|'
p1486
NNNI9
I1
I0
tp1487
bS'APJ_HUMAN'
p1488
tp1489
Rp1490
ag1
(g2
(S'S11'
p1491
I0
I1
tp1492
Rp1493
(I3
S'|'
p1494
NNNI11
I1
I0
tp1495
bS'BKRB2_HUMAN'
p1496
tp1497
Rp1498
ag1
(g2
(S'S11'
p1499
I0
I1
tp1500
Rp1501
(I3
S'|'
p1502
NNNI11
I1
I0
tp1503
bS'BKRB1_HUMAN'
p1504
tp1505
Rp1506
ag1
(g2
(S'S10'
p1507
I0
I1
tp1508
Rp1509
(I3
S'|'
p1510
NNNI10
I1
I0
tp1511
bS'BRS3_HUMAN'
p1512
tp1513
Rp1514
ag1
(g2
(S'S11'
p1515
I0
I1
tp1516
Rp1517
(I3
S'|'
p1518
NNNI11
I1
I0
tp1519
bS'C5AR2_HUMAN'
p1520
tp1521
Rp1522
ag1
(g2
(S'S11'
p1523
I0
I1
tp1524
Rp1525
(I3
S'|'
p1526
NNNI11
I1
I0
tp1527
bS'CALCR_HUMAN'
p1528
tp1529
Rp1530
ag1
(g2
(S'S10'
p1531
I0
I1
tp1532
Rp1533
(I3
S'|'
p1534
NNNI10
I1
I0
tp1535
bS'C3AR_HUMAN'
p1536
tp1537
Rp1538
ag1
(g2
(S'S11'
p1539
I0
I1
tp1540
Rp1541
(I3
S'|'
p1542
NNNI11
I1
I0
tp1543
bS'C5AR1_HUMAN'
p1544
tp1545
Rp1546
ag1
(g2
(S'S11'
p1547
I0
I1
tp1548
Rp1549
(I3
S'|'
p1550
NNNI11
I1
I0
tp1551
bS'CALRL_HUMAN'
p1552
tp1553
Rp1554
ag1
(g2
(S'S10'
p1555
I0
I1
tp1556
Rp1557
(I3
S'|'
p1558
NNNI10
I1
I0
tp1559
bS'CCR8_HUMAN'
p1560
tp1561
Rp1562
ag1
(g2
(S'S10'
p1563
I0
I1
tp1564
Rp1565
(I3
S'|'
p1566
NNNI10
I1
I0
tp1567
bS'CNR2_HUMAN'
p1568
tp1569
Rp1570
ag1
(g2
(S'S10'
p1571
I0
I1
tp1572
Rp1573
(I3
S'|'
p1574
NNNI10
I1
I0
tp1575
bS'CCR2_HUMAN'
p1576
tp1577
Rp1578
ag1
(g2
(S'S10'
p1579
I0
I1
tp1580
Rp1581
(I3
S'|'
p1582
NNNI10
I1
I0
tp1583
bS'CCR6_HUMAN'
p1584
tp1585
Rp1586
ag1
(g2
(S'S10'
p1587
I0
I1
tp1588
Rp1589
(I3
S'|'
p1590
NNNI10
I1
I0
tp1591
bS'CCR7_HUMAN'
p1592
tp1593
Rp1594
ag1
(g2
(S'S10'
p1595
I0
I1
tp1596
Rp1597
(I3
S'|'
p1598
NNNI10
I1
I0
tp1599
bS'CCR4_HUMAN'
p1600
tp1601
Rp1602
ag1
(g2
(S'S10'
p1603
I0
I1
tp1604
Rp1605
(I3
S'|'
p1606
NNNI10
I1
I0
tp1607
bS'CCR1_HUMAN'
p1608
tp1609
Rp1610
ag1
(g2
(S'S10'
p1611
I0
I1
tp1612
Rp1613
(I3
S'|'
p1614
NNNI10
I1
I0
tp1615
bS'CCR5_HUMAN'
p1616
tp1617
Rp1618
ag1
(g2
(S'S10'
p1619
I0
I1
tp1620
Rp1621
(I3
S'|'
p1622
NNNI10
I1
I0
tp1623
bS'CCR3_HUMAN'
p1624
tp1625
Rp1626
ag1
(g2
(S'S10'
p1627
I0
I1
tp1628
Rp1629
(I3
S'|'
p1630
NNNI10
I1
I0
tp1631
bS'CCR9_HUMAN'
p1632
tp1633
Rp1634
ag1
(g2
(S'S11'
p1635
I0
I1
tp1636
Rp1637
(I3
S'|'
p1638
NNNI11
I1
I0
tp1639
bS'CCR10_HUMAN'
p1640
tp1641
Rp1642
ag1
(g2
(S'S11'
p1643
I0
I1
tp1644
Rp1645
(I3
S'|'
p1646
NNNI11
I1
I0
tp1647
bS'CCRL2_HUMAN'
p1648
tp1649
Rp1650
ag1
(g2
(S'S10'
p1651
I0
I1
tp1652
Rp1653
(I3
S'|'
p1654
NNNI10
I1
I0
tp1655
bS'CD97_HUMAN'
p1656
tp1657
Rp1658
ag1
(g2
(S'S10'
p1659
I0
I1
tp1660
Rp1661
(I3
S'|'
p1662
NNNI10
I1
I0
tp1663
bS'CML1_HUMAN'
p1664
tp1665
Rp1666
ag1
(g2
(S'S10'
p1667
I0
I1
tp1668
Rp1669
(I3
S'|'
p1670
NNNI10
I1
I0
tp1671
bS'CNR1_HUMAN'
p1672
tp1673
Rp1674
ag1
(g2
(S'S11'
p1675
I0
I1
tp1676
Rp1677
(I3
S'|'
p1678
NNNI11
I1
I0
tp1679
bS'CLTR1_HUMAN'
p1680
tp1681
Rp1682
ag1
(g2
(S'S11'
p1683
I0
I1
tp1684
Rp1685
(I3
S'|'
p1686
NNNI11
I1
I0
tp1687
bS'CRFR2_HUMAN'
p1688
tp1689
Rp1690
ag1
(g2
(S'S11'
p1691
I0
I1
tp1692
Rp1693
(I3
S'|'
p1694
NNNI11
I1
I0
tp1695
bS'CX3C1_HUMAN'
p1696
tp1697
Rp1698
ag1
(g2
(S'S11'
p1699
I0
I1
tp1700
Rp1701
(I3
S'|'
p1702
NNNI11
I1
I0
tp1703
bS'CXCR1_HUMAN'
p1704
tp1705
Rp1706
ag1
(g2
(S'S11'
p1707
I0
I1
tp1708
Rp1709
(I3
S'|'
p1710
NNNI11
I1
I0
tp1711
bS'CRFR1_HUMAN'
p1712
tp1713
Rp1714
ag1
(g2
(S'S11'
p1715
I0
I1
tp1716
Rp1717
(I3
S'|'
p1718
NNNI11
I1
I0
tp1719
bS'CXCR2_HUMAN'
p1720
tp1721
Rp1722
ag1
(g2
(S'S11'
p1723
I0
I1
tp1724
Rp1725
(I3
S'|'
p1726
NNNI11
I1
I0
tp1727
bS'CXCR3_HUMAN'
p1728
tp1729
Rp1730
ag1
(g2
(S'S11'
p1731
I0
I1
tp1732
Rp1733
(I3
S'|'
p1734
NNNI11
I1
I0
tp1735
bS'CXCR5_HUMAN'
p1736
tp1737
Rp1738
ag1
(g2
(S'S11'
p1739
I0
I1
tp1740
Rp1741
(I3
S'|'
p1742
NNNI11
I1
I0
tp1743
bS'CXCR6_HUMAN'
p1744
tp1745
Rp1746
ag1
(g2
(S'S11'
p1747
I0
I1
tp1748
Rp1749
(I3
S'|'
p1750
NNNI11
I1
I0
tp1751
bS'EDNRA_HUMAN'
p1752
tp1753
Rp1754
ag1
(g2
(S'S10'
p1755
I0
I1
tp1756
Rp1757
(I3
S'|'
p1758
NNNI10
I1
I0
tp1759
bS'DRD5_HUMAN'
p1760
tp1761
Rp1762
ag1
(g2
(S'S11'
p1763
I0
I1
tp1764
Rp1765
(I3
S'|'
p1766
NNNI11
I1
I0
tp1767
bS'EDNRB_HUMAN'
p1768
tp1769
Rp1770
ag1
(g2
(S'S11'
p1771
I0
I1
tp1772
Rp1773
(I3
S'|'
p1774
NNNI11
I1
I0
tp1775
bS'ETBR2_HUMAN'
p1776
tp1777
Rp1778
ag1
(g2
(S'S11'
p1779
I0
I1
tp1780
Rp1781
(I3
S'|'
p1782
NNNI11
I1
I0
tp1783
bS'FFAR1_HUMAN'
p1784
tp1785
Rp1786
ag1
(g2
(S'S11'
p1787
I0
I1
tp1788
Rp1789
(I3
S'|'
p1790
NNNI11
I1
I0
tp1791
bS'FFAR3_HUMAN'
p1792
tp1793
Rp1794
ag1
(g2
(S'S11'
p1795
I0
I1
tp1796
Rp1797
(I3
S'|'
p1798
NNNI11
I1
I0
tp1799
bS'LPAR1_HUMAN'
p1800
tp1801
Rp1802
ag1
(g2
(S'S10'
p1803
I0
I1
tp1804
Rp1805
(I3
S'|'
p1806
NNNI10
I1
I0
tp1807
bS'MC5R_HUMAN'
p1808
tp1809
Rp1810
ag1
(g2
(S'S10'
p1811
I0
I1
tp1812
Rp1813
(I3
S'|'
p1814
NNNI10
I1
I0
tp1815
bS'MC3R_HUMAN'
p1816
tp1817
Rp1818
ag1
(g2
(S'S10'
p1819
I0
I1
tp1820
Rp1821
(I3
S'|'
p1822
NNNI10
I1
I0
tp1823
bS'LSHR_HUMAN'
p1824
tp1825
Rp1826
ag1
(g2
(S'S11'
p1827
I0
I1
tp1828
Rp1829
(I3
S'|'
p1830
NNNI11
I1
I0
tp1831
bS'LT4R1_HUMAN'
p1832
tp1833
Rp1834
ag1
(g2
(S'S10'
p1835
I0
I1
tp1836
Rp1837
(I3
S'|'
p1838
NNNI10
I1
I0
tp1839
bS'MTLR_HUMAN'
p1840
tp1841
Rp1842
ag1
(g2
(S'S11'
p1843
I0
I1
tp1844
Rp1845
(I3
S'|'
p1846
NNNI11
I1
I0
tp1847
bS'MTR1A_HUMAN'
p1848
tp1849
Rp1850
ag1
(g2
(S'S11'
p1851
I0
I1
tp1852
Rp1853
(I3
S'|'
p1854
NNNI11
I1
I0
tp1855
bS'O10A2_HUMAN'
p1856
tp1857
Rp1858
ag1
(g2
(S'S11'
p1859
I0
I1
tp1860
Rp1861
(I3
S'|'
p1862
NNNI11
I1
I0
tp1863
bS'O10A6_HUMAN'
p1864
tp1865
Rp1866
ag1
(g2
(S'S11'
p1867
I0
I1
tp1868
Rp1869
(I3
S'|'
p1870
NNNI11
I1
I0
tp1871
bS'O10G3_HUMAN'
p1872
tp1873
Rp1874
ag1
(g2
(S'S11'
p1875
I0
I1
tp1876
Rp1877
(I3
S'|'
p1878
NNNI11
I1
I0
tp1879
bS'O10G8_HUMAN'
p1880
tp1881
Rp1882
ag1
(g2
(S'S11'
p1883
I0
I1
tp1884
Rp1885
(I3
S'|'
p1886
NNNI11
I1
I0
tp1887
bS'O10H1_HUMAN'
p1888
tp1889
Rp1890
ag1
(g2
(S'S11'
p1891
I0
I1
tp1892
Rp1893
(I3
S'|'
p1894
NNNI11
I1
I0
tp1895
bS'O10H5_HUMAN'
p1896
tp1897
Rp1898
ag1
(g2
(S'S11'
p1899
I0
I1
tp1900
Rp1901
(I3
S'|'
p1902
NNNI11
I1
I0
tp1903
bS'O10J3_HUMAN'
p1904
tp1905
Rp1906
ag1
(g2
(S'S11'
p1907
I0
I1
tp1908
Rp1909
(I3
S'|'
p1910
NNNI11
I1
I0
tp1911
bS'O10Q1_HUMAN'
p1912
tp1913
Rp1914
ag1
(g2
(S'S11'
p1915
I0
I1
tp1916
Rp1917
(I3
S'|'
p1918
NNNI11
I1
I0
tp1919
bS'O10T2_HUMAN'
p1920
tp1921
Rp1922
ag1
(g2
(S'S11'
p1923
I0
I1
tp1924
Rp1925
(I3
S'|'
p1926
NNNI11
I1
I0
tp1927
bS'O11A1_HUMAN'
p1928
tp1929
Rp1930
ag1
(g2
(S'S11'
p1931
I0
I1
tp1932
Rp1933
(I3
S'|'
p1934
NNNI11
I1
I0
tp1935
bS'O11H4_HUMAN'
p1936
tp1937
Rp1938
ag1
(g2
(S'S11'
p1939
I0
I1
tp1940
Rp1941
(I3
S'|'
p1942
NNNI11
I1
I0
tp1943
bS'O11H7_HUMAN'
p1944
tp1945
Rp1946
ag1
(g2
(S'S11'
p1947
I0
I1
tp1948
Rp1949
(I3
S'|'
p1950
NNNI11
I1
I0
tp1951
bS'O12D3_HUMAN'
p1952
tp1953
Rp1954
ag1
(g2
(S'S11'
p1955
I0
I1
tp1956
Rp1957
(I3
S'|'
p1958
NNNI11
I1
I0
tp1959
bS'O13C5_HUMAN'
p1960
tp1961
Rp1962
ag1
(g2
(S'S11'
p1963
I0
I1
tp1964
Rp1965
(I3
S'|'
p1966
NNNI11
I1
I0
tp1967
bS'O13D1_HUMAN'
p1968
tp1969
Rp1970
ag1
(g2
(S'S11'
p1971
I0
I1
tp1972
Rp1973
(I3
S'|'
p1974
NNNI11
I1
I0
tp1975
bS'O13F1_HUMAN'
p1976
tp1977
Rp1978
ag1
(g2
(S'S11'
p1979
I0
I1
tp1980
Rp1981
(I3
S'|'
p1982
NNNI11
I1
I0
tp1983
bS'O14K1_HUMAN'
p1984
tp1985
Rp1986
ag1
(g2
(S'S11'
p1987
I0
I1
tp1988
Rp1989
(I3
S'|'
p1990
NNNI11
I1
I0
tp1991
bS'O51B6_HUMAN'
p1992
tp1993
Rp1994
ag1
(g2
(S'S11'
p1995
I0
I1
tp1996
Rp1997
(I3
S'|'
p1998
NNNI11
I1
I0
tp1999
bS'O51E2_HUMAN'
p2000
tp2001
Rp2002
ag1
(g2
(S'S11'
p2003
I0
I1
tp2004
Rp2005
(I3
S'|'
p2006
NNNI11
I1
I0
tp2007
bS'O51L1_HUMAN'
p2008
tp2009
Rp2010
ag1
(g2
(S'S11'
p2011
I0
I1
tp2012
Rp2013
(I3
S'|'
p2014
NNNI11
I1
I0
tp2015
bS'O51S1_HUMAN'
p2016
tp2017
Rp2018
ag1
(g2
(S'S11'
p2019
I0
I1
tp2020
Rp2021
(I3
S'|'
p2022
NNNI11
I1
I0
tp2023
bS'O52A1_HUMAN'
p2024
tp2025
Rp2026
ag1
(g2
(S'S11'
p2027
I0
I1
tp2028
Rp2029
(I3
S'|'
p2030
NNNI11
I1
I0
tp2031
bS'O52B6_HUMAN'
p2032
tp2033
Rp2034
ag1
(g2
(S'S11'
p2035
I0
I1
tp2036
Rp2037
(I3
S'|'
p2038
NNNI11
I1
I0
tp2039
bS'O52N2_HUMAN'
p2040
tp2041
Rp2042
ag1
(g2
(S'S11'
p2043
I0
I1
tp2044
Rp2045
(I3
S'|'
p2046
NNNI11
I1
I0
tp2047
bS'O52R1_HUMAN'
p2048
tp2049
Rp2050
ag1
(g2
(S'S11'
p2051
I0
I1
tp2052
Rp2053
(I3
S'|'
p2054
NNNI11
I1
I0
tp2055
bS'O52Z1_HUMAN'
p2056
tp2057
Rp2058
ag1
(g2
(S'S11'
p2059
I0
I1
tp2060
Rp2061
(I3
S'|'
p2062
NNNI11
I1
I0
tp2063
bS'O56A1_HUMAN'
p2064
tp2065
Rp2066
ag1
(g2
(S'S11'
p2067
I0
I1
tp2068
Rp2069
(I3
S'|'
p2070
NNNI11
I1
I0
tp2071
bS'O5AN1_HUMAN'
p2072
tp2073
Rp2074
ag1
(g2
(S'S11'
p2075
I0
I1
tp2076
Rp2077
(I3
S'|'
p2078
NNNI11
I1
I0
tp2079
bS'O5AU1_HUMAN'
p2080
tp2081
Rp2082
ag1
(g2
(S'S11'
p2083
I0
I1
tp2084
Rp2085
(I3
S'|'
p2086
NNNI11
I1
I0
tp2087
bS'O6C76_HUMAN'
p2088
tp2089
Rp2090
ag1
(g2
(S'S11'
p2091
I0
I1
tp2092
Rp2093
(I3
S'|'
p2094
NNNI11
I1
I0
tp2095
bS'NPFF2_HUMAN'
p2096
tp2097
Rp2098
ag1
(g2
(S'S11'
p2099
I0
I1
tp2100
Rp2101
(I3
S'|'
p2102
NNNI11
I1
I0
tp2103
bS'O10A4_HUMAN'
p2104
tp2105
Rp2106
ag1
(g2
(S'S11'
p2107
I0
I1
tp2108
Rp2109
(I3
S'|'
p2110
NNNI11
I1
I0
tp2111
bS'O10G6_HUMAN'
p2112
tp2113
Rp2114
ag1
(g2
(S'S11'
p2115
I0
I1
tp2116
Rp2117
(I3
S'|'
p2118
NNNI11
I1
I0
tp2119
bS'O10D3_HUMAN'
p2120
tp2121
Rp2122
ag1
(g2
(S'S11'
p2123
I0
I1
tp2124
Rp2125
(I3
S'|'
p2126
NNNI11
I1
I0
tp2127
bS'O10H4_HUMAN'
p2128
tp2129
Rp2130
ag1
(g2
(S'S11'
p2131
I0
I1
tp2132
Rp2133
(I3
S'|'
p2134
NNNI11
I1
I0
tp2135
bS'O10J4_HUMAN'
p2136
tp2137
Rp2138
ag1
(g2
(S'S11'
p2139
I0
I1
tp2140
Rp2141
(I3
S'|'
p2142
NNNI11
I1
I0
tp2143
bS'O10K2_HUMAN'
p2144
tp2145
Rp2146
ag1
(g2
(S'S11'
p2147
I0
I1
tp2148
Rp2149
(I3
S'|'
p2150
NNNI11
I1
I0
tp2151
bS'O10S1_HUMAN'
p2152
tp2153
Rp2154
ag1
(g2
(S'S11'
p2155
I0
I1
tp2156
Rp2157
(I3
S'|'
p2158
NNNI11
I1
I0
tp2159
bS'O10X1_HUMAN'
p2160
tp2161
Rp2162
ag1
(g2
(S'S11'
p2163
I0
I1
tp2164
Rp2165
(I3
S'|'
p2166
NNNI11
I1
I0
tp2167
bS'O11H2_HUMAN'
p2168
tp2169
Rp2170
ag1
(g2
(S'S11'
p2171
I0
I1
tp2172
Rp2173
(I3
S'|'
p2174
NNNI11
I1
I0
tp2175
bS'O13A1_HUMAN'
p2176
tp2177
Rp2178
ag1
(g2
(S'S11'
p2179
I0
I1
tp2180
Rp2181
(I3
S'|'
p2182
NNNI11
I1
I0
tp2183
bS'O13C9_HUMAN'
p2184
tp2185
Rp2186
ag1
(g2
(S'S11'
p2187
I0
I1
tp2188
Rp2189
(I3
S'|'
p2190
NNNI11
I1
I0
tp2191
bS'O13G1_HUMAN'
p2192
tp2193
Rp2194
ag1
(g2
(S'S11'
p2195
I0
I1
tp2196
Rp2197
(I3
S'|'
p2198
NNNI11
I1
I0
tp2199
bS'O14L1_HUMAN'
p2200
tp2201
Rp2202
ag1
(g2
(S'S11'
p2203
I0
I1
tp2204
Rp2205
(I3
S'|'
p2206
NNNI11
I1
I0
tp2207
bS'O2A25_HUMAN'
p2208
tp2209
Rp2210
ag1
(g2
(S'S11'
p2211
I0
I1
tp2212
Rp2213
(I3
S'|'
p2214
NNNI11
I1
I0
tp2215
bS'O2AJ1_HUMAN'
p2216
tp2217
Rp2218
ag1
(g2
(S'S11'
p2219
I0
I1
tp2220
Rp2221
(I3
S'|'
p2222
NNNI11
I1
I0
tp2223
bS'O2AK2_HUMAN'
p2224
tp2225
Rp2226
ag1
(g2
(S'S11'
p2227
I0
I1
tp2228
Rp2229
(I3
S'|'
p2230
NNNI11
I1
I0
tp2231
bS'O2T27_HUMAN'
p2232
tp2233
Rp2234
ag1
(g2
(S'S11'
p2235
I0
I1
tp2236
Rp2237
(I3
S'|'
p2238
NNNI11
I1
I0
tp2239
bS'O2T35_HUMAN'
p2240
tp2241
Rp2242
ag1
(g2
(S'S11'
p2243
I0
I1
tp2244
Rp2245
(I3
S'|'
p2246
NNNI11
I1
I0
tp2247
bS'O51B4_HUMAN'
p2248
tp2249
Rp2250
ag1
(g2
(S'S11'
p2251
I0
I1
tp2252
Rp2253
(I3
S'|'
p2254
NNNI11
I1
I0
tp2255
bS'O51F1_HUMAN'
p2256
tp2257
Rp2258
ag1
(g2
(S'S11'
p2259
I0
I1
tp2260
Rp2261
(I3
S'|'
p2262
NNNI11
I1
I0
tp2263
bS'O51I1_HUMAN'
p2264
tp2265
Rp2266
ag1
(g2
(S'S11'
p2267
I0
I1
tp2268
Rp2269
(I3
S'|'
p2270
NNNI11
I1
I0
tp2271
bS'O52D1_HUMAN'
p2272
tp2273
Rp2274
ag1
(g2
(S'S11'
p2275
I0
I1
tp2276
Rp2277
(I3
S'|'
p2278
NNNI11
I1
I0
tp2279
bS'O52E6_HUMAN'
p2280
tp2281
Rp2282
ag1
(g2
(S'S11'
p2283
I0
I1
tp2284
Rp2285
(I3
S'|'
p2286
NNNI11
I1
I0
tp2287
bS'O52N1_HUMAN'
p2288
tp2289
Rp2290
ag1
(g2
(S'S11'
p2291
I0
I1
tp2292
Rp2293
(I3
S'|'
p2294
NNNI11
I1
I0
tp2295
bS'O52P1_HUMAN'
p2296
tp2297
Rp2298
ag1
(g2
(S'S11'
p2299
I0
I1
tp2300
Rp2301
(I3
S'|'
p2302
NNNI11
I1
I0
tp2303
bS'O52W1_HUMAN'
p2304
tp2305
Rp2306
ag1
(g2
(S'S11'
p2307
I0
I1
tp2308
Rp2309
(I3
S'|'
p2310
NNNI11
I1
I0
tp2311
bS'O56B1_HUMAN'
p2312
tp2313
Rp2314
ag1
(g2
(S'S11'
p2315
I0
I1
tp2316
Rp2317
(I3
S'|'
p2318
NNNI11
I1
I0
tp2319
bS'O5AL1_HUMAN'
p2320
tp2321
Rp2322
ag1
(g2
(S'S11'
p2323
I0
I1
tp2324
Rp2325
(I3
S'|'
p2326
NNNI11
I1
I0
tp2327
bS'O5AS1_HUMAN'
p2328
tp2329
Rp2330
ag1
(g2
(S'S11'
p2331
I0
I1
tp2332
Rp2333
(I3
S'|'
p2334
NNNI11
I1
I0
tp2335
bS'O5H15_HUMAN'
p2336
tp2337
Rp2338
ag1
(g2
(S'S11'
p2339
I0
I1
tp2340
Rp2341
(I3
S'|'
p2342
NNNI11
I1
I0
tp2343
bS'O6C75_HUMAN'
p2344
tp2345
Rp2346
ag1
(g2
(S'S11'
p2347
I0
I1
tp2348
Rp2349
(I3
S'|'
p2350
NNNI11
I1
I0
tp2351
bS'NPY4R_HUMAN'
p2352
tp2353
Rp2354
ag1
(g2
(S'S11'
p2355
I0
I1
tp2356
Rp2357
(I3
S'|'
p2358
NNNI11
I1
I0
tp2359
bS'NPFF1_HUMAN'
p2360
tp2361
Rp2362
ag1
(g2
(S'S11'
p2363
I0
I1
tp2364
Rp2365
(I3
S'|'
p2366
NNNI11
I1
I0
tp2367
bS'NPBW2_HUMAN'
p2368
tp2369
Rp2370
ag1
(g2
(S'S11'
p2371
I0
I1
tp2372
Rp2373
(I3
S'|'
p2374
NNNI11
I1
I0
tp2375
bS'NPSR1_HUMAN'
p2376
tp2377
Rp2378
ag1
(g2
(S'S11'
p2379
I0
I1
tp2380
Rp2381
(I3
S'|'
p2382
NNNI11
I1
I0
tp2383
bS'NPY1R_HUMAN'
p2384
tp2385
Rp2386
ag1
(g2
(S'S10'
p2387
I0
I1
tp2388
Rp2389
(I3
S'|'
p2390
NNNI10
I1
I0
tp2391
bS'NK1R_HUMAN'
p2392
tp2393
Rp2394
ag1
(g2
(S'S10'
p2395
I0
I1
tp2396
Rp2397
(I3
S'|'
p2398
NNNI10
I1
I0
tp2399
bS'NK3R_HUMAN'
p2400
tp2401
Rp2402
ag1
(g2
(S'S11'
p2403
I0
I1
tp2404
Rp2405
(I3
S'|'
p2406
NNNI11
I1
I0
tp2407
bS'NMUR1_HUMAN'
p2408
tp2409
Rp2410
ag1
(g2
(S'S11'
p2411
I0
I1
tp2412
Rp2413
(I3
S'|'
p2414
NNNI11
I1
I0
tp2415
bS'O10AC_HUMAN'
p2416
tp2417
Rp2418
ag1
(g2
(S'S11'
p2419
I0
I1
tp2420
Rp2421
(I3
S'|'
p2422
NNNI11
I1
I0
tp2423
bS'O10AG_HUMAN'
p2424
tp2425
Rp2426
ag1
(g2
(S'S11'
p2427
I0
I1
tp2428
Rp2429
(I3
S'|'
p2430
NNNI11
I1
I0
tp2431
bS'O10D4_HUMAN'
p2432
tp2433
Rp2434
ag1
(g2
(S'S11'
p2435
I0
I1
tp2436
Rp2437
(I3
S'|'
p2438
NNNI11
I1
I0
tp2439
bS'O10G4_HUMAN'
p2440
tp2441
Rp2442
ag1
(g2
(S'S11'
p2443
I0
I1
tp2444
Rp2445
(I3
S'|'
p2446
NNNI11
I1
I0
tp2447
bS'O10G7_HUMAN'
p2448
tp2449
Rp2450
ag1
(g2
(S'S11'
p2451
I0
I1
tp2452
Rp2453
(I3
S'|'
p2454
NNNI11
I1
I0
tp2455
bS'O10H2_HUMAN'
p2456
tp2457
Rp2458
ag1
(g2
(S'S11'
p2459
I0
I1
tp2460
Rp2461
(I3
S'|'
p2462
NNNI11
I1
I0
tp2463
bS'O10J5_HUMAN'
p2464
tp2465
Rp2466
ag1
(g2
(S'S11'
p2467
I0
I1
tp2468
Rp2469
(I3
S'|'
p2470
NNNI11
I1
I0
tp2471
bS'O10R2_HUMAN'
p2472
tp2473
Rp2474
ag1
(g2
(S'S11'
p2475
I0
I1
tp2476
Rp2477
(I3
S'|'
p2478
NNNI11
I1
I0
tp2479
bS'O10W1_HUMAN'
p2480
tp2481
Rp2482
ag1
(g2
(S'S11'
p2483
I0
I1
tp2484
Rp2485
(I3
S'|'
p2486
NNNI11
I1
I0
tp2487
bS'O13C4_HUMAN'
p2488
tp2489
Rp2490
ag1
(g2
(S'S11'
p2491
I0
I1
tp2492
Rp2493
(I3
S'|'
p2494
NNNI11
I1
I0
tp2495
bS'O4A15_HUMAN'
p2496
tp2497
Rp2498
ag1
(g2
(S'S11'
p2499
I0
I1
tp2500
Rp2501
(I3
S'|'
p2502
NNNI11
I1
I0
tp2503
bS'O51A7_HUMAN'
p2504
tp2505
Rp2506
ag1
(g2
(S'S11'
p2507
I0
I1
tp2508
Rp2509
(I3
S'|'
p2510
NNNI11
I1
I0
tp2511
bS'O51D1_HUMAN'
p2512
tp2513
Rp2514
ag1
(g2
(S'S11'
p2515
I0
I1
tp2516
Rp2517
(I3
S'|'
p2518
NNNI11
I1
I0
tp2519
bS'O51I2_HUMAN'
p2520
tp2521
Rp2522
ag1
(g2
(S'S11'
p2523
I0
I1
tp2524
Rp2525
(I3
S'|'
p2526
NNNI11
I1
I0
tp2527
bS'O51M1_HUMAN'
p2528
tp2529
Rp2530
ag1
(g2
(S'S11'
p2531
I0
I1
tp2532
Rp2533
(I3
S'|'
p2534
NNNI11
I1
I0
tp2535
bS'O51T1_HUMAN'
p2536
tp2537
Rp2538
ag1
(g2
(S'S11'
p2539
I0
I1
tp2540
Rp2541
(I3
S'|'
p2542
NNNI11
I1
I0
tp2543
bS'O52A4_HUMAN'
p2544
tp2545
Rp2546
ag1
(g2
(S'S11'
p2547
I0
I1
tp2548
Rp2549
(I3
S'|'
p2550
NNNI11
I1
I0
tp2551
bS'O52B2_HUMAN'
p2552
tp2553
Rp2554
ag1
(g2
(S'S11'
p2555
I0
I1
tp2556
Rp2557
(I3
S'|'
p2558
NNNI11
I1
I0
tp2559
bS'O52E2_HUMAN'
p2560
tp2561
Rp2562
ag1
(g2
(S'S11'
p2563
I0
I1
tp2564
Rp2565
(I3
S'|'
p2566
NNNI11
I1
I0
tp2567
bS'O52I1_HUMAN'
p2568
tp2569
Rp2570
ag1
(g2
(S'S11'
p2571
I0
I1
tp2572
Rp2573
(I3
S'|'
p2574
NNNI11
I1
I0
tp2575
bS'O52I2_HUMAN'
p2576
tp2577
Rp2578
ag1
(g2
(S'S11'
p2579
I0
I1
tp2580
Rp2581
(I3
S'|'
p2582
NNNI11
I1
I0
tp2583
bS'O52K2_HUMAN'
p2584
tp2585
Rp2586
ag1
(g2
(S'S11'
p2587
I0
I1
tp2588
Rp2589
(I3
S'|'
p2590
NNNI11
I1
I0
tp2591
bS'O52M1_HUMAN'
p2592
tp2593
Rp2594
ag1
(g2
(S'S11'
p2595
I0
I1
tp2596
Rp2597
(I3
S'|'
p2598
NNNI11
I1
I0
tp2599
bS'O56B4_HUMAN'
p2600
tp2601
Rp2602
ag1
(g2
(S'S11'
p2603
I0
I1
tp2604
Rp2605
(I3
S'|'
p2606
NNNI11
I1
I0
tp2607
bS'O5AC2_HUMAN'
p2608
tp2609
Rp2610
ag1
(g2
(S'S11'
p2611
I0
I1
tp2612
Rp2613
(I3
S'|'
p2614
NNNI11
I1
I0
tp2615
bS'O5AR1_HUMAN'
p2616
tp2617
Rp2618
ag1
(g2
(S'S11'
p2619
I0
I1
tp2620
Rp2621
(I3
S'|'
p2622
NNNI11
I1
I0
tp2623
bS'O5AK3_HUMAN'
p2624
tp2625
Rp2626
ag1
(g2
(S'S11'
p2627
I0
I1
tp2628
Rp2629
(I3
S'|'
p2630
NNNI11
I1
I0
tp2631
bS'O6C65_HUMAN'
p2632
tp2633
Rp2634
ag1
(g2
(S'S10'
p2635
I0
I1
tp2636
Rp2637
(I3
S'|'
p2638
NNNI10
I1
I0
tp2639
bS'OPSD_HUMAN'
p2640
tp2641
Rp2642
ag1
(g2
(S'S11'
p2643
I0
I1
tp2644
Rp2645
(I3
S'|'
p2646
NNNI11
I1
I0
tp2647
bS'OR1E2_HUMAN'
p2648
tp2649
Rp2650
ag1
(g2
(S'S11'
p2651
I0
I1
tp2652
Rp2653
(I3
S'|'
p2654
NNNI11
I1
I0
tp2655
bS'OR1F2_HUMAN'
p2656
tp2657
Rp2658
ag1
(g2
(S'S11'
p2659
I0
I1
tp2660
Rp2661
(I3
S'|'
p2662
NNNI11
I1
I0
tp2663
bS'OR1G1_HUMAN'
p2664
tp2665
Rp2666
ag1
(g2
(S'S11'
p2667
I0
I1
tp2668
Rp2669
(I3
S'|'
p2670
NNNI11
I1
I0
tp2671
bS'OR1J4_HUMAN'
p2672
tp2673
Rp2674
ag1
(g2
(S'S11'
p2675
I0
I1
tp2676
Rp2677
(I3
S'|'
p2678
NNNI11
I1
I0
tp2679
bS'OR1L3_HUMAN'
p2680
tp2681
Rp2682
ag1
(g2
(S'S11'
p2683
I0
I1
tp2684
Rp2685
(I3
S'|'
p2686
NNNI11
I1
I0
tp2687
bS'OR1N2_HUMAN'
p2688
tp2689
Rp2690
ag1
(g2
(S'S11'
p2691
I0
I1
tp2692
Rp2693
(I3
S'|'
p2694
NNNI11
I1
I0
tp2695
bS'OR2A2_HUMAN'
p2696
tp2697
Rp2698
ag1
(g2
(S'S11'
p2699
I0
I1
tp2700
Rp2701
(I3
S'|'
p2702
NNNI11
I1
I0
tp2703
bS'OR2C1_HUMAN'
p2704
tp2705
Rp2706
ag1
(g2
(S'S11'
p2707
I0
I1
tp2708
Rp2709
(I3
S'|'
p2710
NNNI11
I1
I0
tp2711
bS'OR2G3_HUMAN'
p2712
tp2713
Rp2714
ag1
(g2
(S'S11'
p2715
I0
I1
tp2716
Rp2717
(I3
S'|'
p2718
NNNI11
I1
I0
tp2719
bS'OR2I1_HUMAN'
p2720
tp2721
Rp2722
ag1
(g2
(S'S11'
p2723
I0
I1
tp2724
Rp2725
(I3
S'|'
p2726
NNNI11
I1
I0
tp2727
bS'OR2J2_HUMAN'
p2728
tp2729
Rp2730
ag1
(g2
(S'S11'
p2731
I0
I1
tp2732
Rp2733
(I3
S'|'
p2734
NNNI11
I1
I0
tp2735
bS'OR2L8_HUMAN'
p2736
tp2737
Rp2738
ag1
(g2
(S'S11'
p2739
I0
I1
tp2740
Rp2741
(I3
S'|'
p2742
NNNI11
I1
I0
tp2743
bS'OR2M4_HUMAN'
p2744
tp2745
Rp2746
ag1
(g2
(S'S11'
p2747
I0
I1
tp2748
Rp2749
(I3
S'|'
p2750
NNNI11
I1
I0
tp2751
bS'OR2T4_HUMAN'
p2752
tp2753
Rp2754
ag1
(g2
(S'S11'
p2755
I0
I1
tp2756
Rp2757
(I3
S'|'
p2758
NNNI11
I1
I0
tp2759
bS'OR2W6_HUMAN'
p2760
tp2761
Rp2762
ag1
(g2
(S'S11'
p2763
I0
I1
tp2764
Rp2765
(I3
S'|'
p2766
NNNI11
I1
I0
tp2767
bS'OR3A1_HUMAN'
p2768
tp2769
Rp2770
ag1
(g2
(S'S11'
p2771
I0
I1
tp2772
Rp2773
(I3
S'|'
p2774
NNNI11
I1
I0
tp2775
bS'O13C7_HUMAN'
p2776
tp2777
Rp2778
ag1
(g2
(S'S11'
p2779
I0
I1
tp2780
Rp2781
(I3
S'|'
p2782
NNNI11
I1
I0
tp2783
bS'O2T34_HUMAN'
p2784
tp2785
Rp2786
ag1
(g2
(S'S11'
p2787
I0
I1
tp2788
Rp2789
(I3
S'|'
p2790
NNNI11
I1
I0
tp2791
bS'O4A47_HUMAN'
p2792
tp2793
Rp2794
ag1
(g2
(S'S11'
p2795
I0
I1
tp2796
Rp2797
(I3
S'|'
p2798
NNNI11
I1
I0
tp2799
bS'O4F17_HUMAN'
p2800
tp2801
Rp2802
ag1
(g2
(S'S11'
p2803
I0
I1
tp2804
Rp2805
(I3
S'|'
p2806
NNNI11
I1
I0
tp2807
bS'O4F21_HUMAN'
p2808
tp2809
Rp2810
ag1
(g2
(S'S11'
p2811
I0
I1
tp2812
Rp2813
(I3
S'|'
p2814
NNNI11
I1
I0
tp2815
bS'O51B5_HUMAN'
p2816
tp2817
Rp2818
ag1
(g2
(S'S11'
p2819
I0
I1
tp2820
Rp2821
(I3
S'|'
p2822
NNNI11
I1
I0
tp2823
bS'O51G1_HUMAN'
p2824
tp2825
Rp2826
ag1
(g2
(S'S11'
p2827
I0
I1
tp2828
Rp2829
(I3
S'|'
p2830
NNNI11
I1
I0
tp2831
bS'O52E4_HUMAN'
p2832
tp2833
Rp2834
ag1
(g2
(S'S11'
p2835
I0
I1
tp2836
Rp2837
(I3
S'|'
p2838
NNNI11
I1
I0
tp2839
bS'O52E8_HUMAN'
p2840
tp2841
Rp2842
ag1
(g2
(S'S11'
p2843
I0
I1
tp2844
Rp2845
(I3
S'|'
p2846
NNNI11
I1
I0
tp2847
bS'O52J3_HUMAN'
p2848
tp2849
Rp2850
ag1
(g2
(S'S11'
p2851
I0
I1
tp2852
Rp2853
(I3
S'|'
p2854
NNNI11
I1
I0
tp2855
bS'O52L2_HUMAN'
p2856
tp2857
Rp2858
ag1
(g2
(S'S11'
p2859
I0
I1
tp2860
Rp2861
(I3
S'|'
p2862
NNNI11
I1
I0
tp2863
bS'O52N5_HUMAN'
p2864
tp2865
Rp2866
ag1
(g2
(S'S11'
p2867
I0
I1
tp2868
Rp2869
(I3
S'|'
p2870
NNNI11
I1
I0
tp2871
bS'O56B2_HUMAN'
p2872
tp2873
Rp2874
ag1
(g2
(S'S11'
p2875
I0
I1
tp2876
Rp2877
(I3
S'|'
p2878
NNNI11
I1
I0
tp2879
bS'O5AC1_HUMAN'
p2880
tp2881
Rp2882
ag1
(g2
(S'S11'
p2883
I0
I1
tp2884
Rp2885
(I3
S'|'
p2886
NNNI11
I1
I0
tp2887
bS'O5AK2_HUMAN'
p2888
tp2889
Rp2890
ag1
(g2
(S'S11'
p2891
I0
I1
tp2892
Rp2893
(I3
S'|'
p2894
NNNI11
I1
I0
tp2895
bS'O5AP2_HUMAN'
p2896
tp2897
Rp2898
ag1
(g2
(S'S11'
p2899
I0
I1
tp2900
Rp2901
(I3
S'|'
p2902
NNNI11
I1
I0
tp2903
bS'O5H14_HUMAN'
p2904
tp2905
Rp2906
ag1
(g2
(S'S11'
p2907
I0
I1
tp2908
Rp2909
(I3
S'|'
p2910
NNNI11
I1
I0
tp2911
bS'O6C74_HUMAN'
p2912
tp2913
Rp2914
ag1
(g2
(S'S10'
p2915
I0
I1
tp2916
Rp2917
(I3
S'|'
p2918
NNNI10
I1
I0
tp2919
bS'OPN5_HUMAN'
p2920
tp2921
Rp2922
ag1
(g2
(S'S10'
p2923
I0
I1
tp2924
Rp2925
(I3
S'|'
p2926
NNNI10
I1
I0
tp2927
bS'OPRD_HUMAN'
p2928
tp2929
Rp2930
ag1
(g2
(S'S11'
p2931
I0
I1
tp2932
Rp2933
(I3
S'|'
p2934
NNNI11
I1
I0
tp2935
bS'OR1D2_HUMAN'
p2936
tp2937
Rp2938
ag1
(g2
(S'S11'
p2939
I0
I1
tp2940
Rp2941
(I3
S'|'
p2942
NNNI11
I1
I0
tp2943
bS'OR1I1_HUMAN'
p2944
tp2945
Rp2946
ag1
(g2
(S'S11'
p2947
I0
I1
tp2948
Rp2949
(I3
S'|'
p2950
NNNI11
I1
I0
tp2951
bS'OR1L1_HUMAN'
p2952
tp2953
Rp2954
ag1
(g2
(S'S11'
p2955
I0
I1
tp2956
Rp2957
(I3
S'|'
p2958
NNNI11
I1
I0
tp2959
bS'OR1Q1_HUMAN'
p2960
tp2961
Rp2962
ag1
(g2
(S'S11'
p2963
I0
I1
tp2964
Rp2965
(I3
S'|'
p2966
NNNI11
I1
I0
tp2967
bS'OR2B3_HUMAN'
p2968
tp2969
Rp2970
ag1
(g2
(S'S11'
p2971
I0
I1
tp2972
Rp2973
(I3
S'|'
p2974
NNNI11
I1
I0
tp2975
bS'OR2D3_HUMAN'
p2976
tp2977
Rp2978
ag1
(g2
(S'S11'
p2979
I0
I1
tp2980
Rp2981
(I3
S'|'
p2982
NNNI11
I1
I0
tp2983
bS'OR2G6_HUMAN'
p2984
tp2985
Rp2986
ag1
(g2
(S'S11'
p2987
I0
I1
tp2988
Rp2989
(I3
S'|'
p2990
NNNI11
I1
I0
tp2991
bS'OR2H2_HUMAN'
p2992
tp2993
Rp2994
ag1
(g2
(S'S11'
p2995
I0
I1
tp2996
Rp2997
(I3
S'|'
p2998
NNNI11
I1
I0
tp2999
bS'OR2L3_HUMAN'
p3000
tp3001
Rp3002
ag1
(g2
(S'S11'
p3003
I0
I1
tp3004
Rp3005
(I3
S'|'
p3006
NNNI11
I1
I0
tp3007
bS'OR2M5_HUMAN'
p3008
tp3009
Rp3010
ag1
(g2
(S'S11'
p3011
I0
I1
tp3012
Rp3013
(I3
S'|'
p3014
NNNI11
I1
I0
tp3015
bS'OR2T1_HUMAN'
p3016
tp3017
Rp3018
ag1
(g2
(S'S11'
p3019
I0
I1
tp3020
Rp3021
(I3
S'|'
p3022
NNNI11
I1
I0
tp3023
bS'OR2T8_HUMAN'
p3024
tp3025
Rp3026
ag1
(g2
(S'S11'
p3027
I0
I1
tp3028
Rp3029
(I3
S'|'
p3030
NNNI11
I1
I0
tp3031
bS'OR2W3_HUMAN'
p3032
tp3033
Rp3034
ag1
(g2
(S'S11'
p3035
I0
I1
tp3036
Rp3037
(I3
S'|'
p3038
NNNI11
I1
I0
tp3039
bS'OR3A2_HUMAN'
p3040
tp3041
Rp3042
ag1
(g2
(S'S11'
p3043
I0
I1
tp3044
Rp3045
(I3
S'|'
p3046
NNNI11
I1
I0
tp3047
bS'OR3A4_HUMAN'
p3048
tp3049
Rp3050
ag1
(g2
(S'S11'
p3051
I0
I1
tp3052
Rp3053
(I3
S'|'
p3054
NNNI11
I1
I0
tp3055
bS'OR4CB_HUMAN'
p3056
tp3057
Rp3058
ag1
(g2
(S'S11'
p3059
I0
I1
tp3060
Rp3061
(I3
S'|'
p3062
NNNI11
I1
I0
tp3063
bS'OR4K1_HUMAN'
p3064
tp3065
Rp3066
ag1
(g2
(S'S11'
p3067
I0
I1
tp3068
Rp3069
(I3
S'|'
p3070
NNNI11
I1
I0
tp3071
bS'OR4K3_HUMAN'
p3072
tp3073
Rp3074
ag1
(g2
(S'S11'
p3075
I0
I1
tp3076
Rp3077
(I3
S'|'
p3078
NNNI11
I1
I0
tp3079
bS'OR4L1_HUMAN'
p3080
tp3081
Rp3082
ag1
(g2
(S'S11'
p3083
I0
I1
tp3084
Rp3085
(I3
S'|'
p3086
NNNI11
I1
I0
tp3087
bS'OR4N2_HUMAN'
p3088
tp3089
Rp3090
ag1
(g2
(S'S11'
p3091
I0
I1
tp3092
Rp3093
(I3
S'|'
p3094
NNNI11
I1
I0
tp3095
bS'OR4P4_HUMAN'
p3096
tp3097
Rp3098
ag1
(g2
(S'S11'
p3099
I0
I1
tp3100
Rp3101
(I3
S'|'
p3102
NNNI11
I1
I0
tp3103
bS'OR4Q3_HUMAN'
p3104
tp3105
Rp3106
ag1
(g2
(S'S11'
p3107
I0
I1
tp3108
Rp3109
(I3
S'|'
p3110
NNNI11
I1
I0
tp3111
bS'OR5BL_HUMAN'
p3112
tp3113
Rp3114
ag1
(g2
(S'S11'
p3115
I0
I1
tp3116
Rp3117
(I3
S'|'
p3118
NNNI11
I1
I0
tp3119
bS'OR5DE_HUMAN'
p3120
tp3121
Rp3122
ag1
(g2
(S'S11'
p3123
I0
I1
tp3124
Rp3125
(I3
S'|'
p3126
NNNI11
I1
I0
tp3127
bS'OR5F1_HUMAN'
p3128
tp3129
Rp3130
ag1
(g2
(S'S11'
p3131
I0
I1
tp3132
Rp3133
(I3
S'|'
p3134
NNNI11
I1
I0
tp3135
bS'OR5I1_HUMAN'
p3136
tp3137
Rp3138
ag1
(g2
(S'S11'
p3139
I0
I1
tp3140
Rp3141
(I3
S'|'
p3142
NNNI11
I1
I0
tp3143
bS'OR5K1_HUMAN'
p3144
tp3145
Rp3146
ag1
(g2
(S'S11'
p3147
I0
I1
tp3148
Rp3149
(I3
S'|'
p3150
NNNI11
I1
I0
tp3151
bS'OR6A2_HUMAN'
p3152
tp3153
Rp3154
ag1
(g2
(S'S11'
p3155
I0
I1
tp3156
Rp3157
(I3
S'|'
p3158
NNNI11
I1
I0
tp3159
bS'OR6C1_HUMAN'
p3160
tp3161
Rp3162
ag1
(g2
(S'S11'
p3163
I0
I1
tp3164
Rp3165
(I3
S'|'
p3166
NNNI11
I1
I0
tp3167
bS'OR6F1_HUMAN'
p3168
tp3169
Rp3170
ag1
(g2
(S'S11'
p3171
I0
I1
tp3172
Rp3173
(I3
S'|'
p3174
NNNI11
I1
I0
tp3175
bS'OR6M1_HUMAN'
p3176
tp3177
Rp3178
ag1
(g2
(S'S11'
p3179
I0
I1
tp3180
Rp3181
(I3
S'|'
p3182
NNNI11
I1
I0
tp3183
bS'OR8B4_HUMAN'
p3184
tp3185
Rp3186
ag1
(g2
(S'S11'
p3187
I0
I1
tp3188
Rp3189
(I3
S'|'
p3190
NNNI11
I1
I0
tp3191
bS'OR8D4_HUMAN'
p3192
tp3193
Rp3194
ag1
(g2
(S'S11'
p3195
I0
I1
tp3196
Rp3197
(I3
S'|'
p3198
NNNI11
I1
I0
tp3199
bS'OR8G5_HUMAN'
p3200
tp3201
Rp3202
ag1
(g2
(S'S11'
p3203
I0
I1
tp3204
Rp3205
(I3
S'|'
p3206
NNNI11
I1
I0
tp3207
bS'OR8H3_HUMAN'
p3208
tp3209
Rp3210
ag1
(g2
(S'S11'
p3211
I0
I1
tp3212
Rp3213
(I3
S'|'
p3214
NNNI11
I1
I0
tp3215
bS'OR8J1_HUMAN'
p3216
tp3217
Rp3218
ag1
(g2
(S'S11'
p3219
I0
I1
tp3220
Rp3221
(I3
S'|'
p3222
NNNI11
I1
I0
tp3223
bS'OR8K3_HUMAN'
p3224
tp3225
Rp3226
ag1
(g2
(S'S11'
p3227
I0
I1
tp3228
Rp3229
(I3
S'|'
p3230
NNNI11
I1
I0
tp3231
bS'OR9G4_HUMAN'
p3232
tp3233
Rp3234
ag1
(g2
(S'S11'
p3235
I0
I1
tp3236
Rp3237
(I3
S'|'
p3238
NNNI11
I1
I0
tp3239
bS'OR9I1_HUMAN'
p3240
tp3241
Rp3242
ag1
(g2
(S'S11'
p3243
I0
I1
tp3244
Rp3245
(I3
S'|'
p3246
NNNI11
I1
I0
tp3247
bS'O10A5_HUMAN'
p3248
tp3249
Rp3250
ag1
(g2
(S'S11'
p3251
I0
I1
tp3252
Rp3253
(I3
S'|'
p3254
NNNI11
I1
I0
tp3255
bS'O10AD_HUMAN'
p3256
tp3257
Rp3258
ag1
(g2
(S'S11'
p3259
I0
I1
tp3260
Rp3261
(I3
S'|'
p3262
NNNI11
I1
I0
tp3263
bS'O10G2_HUMAN'
p3264
tp3265
Rp3266
ag1
(g2
(S'S11'
p3267
I0
I1
tp3268
Rp3269
(I3
S'|'
p3270
NNNI11
I1
I0
tp3271
bS'O10H3_HUMAN'
p3272
tp3273
Rp3274
ag1
(g2
(S'S11'
p3275
I0
I1
tp3276
Rp3277
(I3
S'|'
p3278
NNNI11
I1
I0
tp3279
bS'O10J1_HUMAN'
p3280
tp3281
Rp3282
ag1
(g2
(S'S11'
p3283
I0
I1
tp3284
Rp3285
(I3
S'|'
p3286
NNNI11
I1
I0
tp3287
bS'O11H6_HUMAN'
p3288
tp3289
Rp3290
ag1
(g2
(S'S11'
p3291
I0
I1
tp3292
Rp3293
(I3
S'|'
p3294
NNNI11
I1
I0
tp3295
bS'O11HC_HUMAN'
p3296
tp3297
Rp3298
ag1
(g2
(S'S11'
p3299
I0
I1
tp3300
Rp3301
(I3
S'|'
p3302
NNNI11
I1
I0
tp3303
bS'O13C2_HUMAN'
p3304
tp3305
Rp3306
ag1
(g2
(S'S11'
p3307
I0
I1
tp3308
Rp3309
(I3
S'|'
p3310
NNNI11
I1
I0
tp3311
bS'O13C8_HUMAN'
p3312
tp3313
Rp3314
ag1
(g2
(S'S11'
p3315
I0
I1
tp3316
Rp3317
(I3
S'|'
p3318
NNNI11
I1
I0
tp3319
bS'O13J1_HUMAN'
p3320
tp3321
Rp3322
ag1
(g2
(S'S11'
p3323
I0
I1
tp3324
Rp3325
(I3
S'|'
p3326
NNNI11
I1
I0
tp3327
bS'O14AG_HUMAN'
p3328
tp3329
Rp3330
ag1
(g2
(S'S11'
p3331
I0
I1
tp3332
Rp3333
(I3
S'|'
p3334
NNNI11
I1
I0
tp3335
bS'O14I1_HUMAN'
p3336
tp3337
Rp3338
ag1
(g2
(S'S11'
p3339
I0
I1
tp3340
Rp3341
(I3
S'|'
p3342
NNNI11
I1
I0
tp3343
bS'O2A12_HUMAN'
p3344
tp3345
Rp3346
ag1
(g2
(S'S11'
p3347
I0
I1
tp3348
Rp3349
(I3
S'|'
p3350
NNNI11
I1
I0
tp3351
bS'O2AE1_HUMAN'
p3352
tp3353
Rp3354
ag1
(g2
(S'S11'
p3355
I0
I1
tp3356
Rp3357
(I3
S'|'
p3358
NNNI11
I1
I0
tp3359
bS'O2AG2_HUMAN'
p3360
tp3361
Rp3362
ag1
(g2
(S'S11'
p3363
I0
I1
tp3364
Rp3365
(I3
S'|'
p3366
NNNI11
I1
I0
tp3367
bS'O2AT4_HUMAN'
p3368
tp3369
Rp3370
ag1
(g2
(S'S11'
p3371
I0
I1
tp3372
Rp3373
(I3
S'|'
p3374
NNNI11
I1
I0
tp3375
bS'O2T12_HUMAN'
p3376
tp3377
Rp3378
ag1
(g2
(S'S11'
p3379
I0
I1
tp3380
Rp3381
(I3
S'|'
p3382
NNNI11
I1
I0
tp3383
bS'OPSG2_HUMAN'
p3384
tp3385
Rp3386
ag1
(g2
(S'S11'
p3387
I0
I1
tp3388
Rp3389
(I3
S'|'
p3390
NNNI11
I1
I0
tp3391
bS'OR1A1_HUMAN'
p3392
tp3393
Rp3394
ag1
(g2
(S'S11'
p3395
I0
I1
tp3396
Rp3397
(I3
S'|'
p3398
NNNI11
I1
I0
tp3399
bS'OR1B1_HUMAN'
p3400
tp3401
Rp3402
ag1
(g2
(S'S11'
p3403
I0
I1
tp3404
Rp3405
(I3
S'|'
p3406
NNNI11
I1
I0
tp3407
bS'OR1D5_HUMAN'
p3408
tp3409
Rp3410
ag1
(g2
(S'S11'
p3411
I0
I1
tp3412
Rp3413
(I3
S'|'
p3414
NNNI11
I1
I0
tp3415
bS'OR1E3_HUMAN'
p3416
tp3417
Rp3418
ag1
(g2
(S'S11'
p3419
I0
I1
tp3420
Rp3421
(I3
S'|'
p3422
NNNI11
I1
I0
tp3423
bS'OR1FC_HUMAN'
p3424
tp3425
Rp3426
ag1
(g2
(S'S11'
p3427
I0
I1
tp3428
Rp3429
(I3
S'|'
p3430
NNNI11
I1
I0
tp3431
bS'OR2A7_HUMAN'
p3432
tp3433
Rp3434
ag1
(g2
(S'S11'
p3435
I0
I1
tp3436
Rp3437
(I3
S'|'
p3438
NNNI11
I1
I0
tp3439
bS'OR2B6_HUMAN'
p3440
tp3441
Rp3442
ag1
(g2
(S'S11'
p3443
I0
I1
tp3444
Rp3445
(I3
S'|'
p3446
NNNI11
I1
I0
tp3447
bS'OR2D2_HUMAN'
p3448
tp3449
Rp3450
ag1
(g2
(S'S11'
p3451
I0
I1
tp3452
Rp3453
(I3
S'|'
p3454
NNNI11
I1
I0
tp3455
bS'OR4C6_HUMAN'
p3456
tp3457
Rp3458
ag1
(g2
(S'S11'
p3459
I0
I1
tp3460
Rp3461
(I3
S'|'
p3462
NNNI11
I1
I0
tp3463
bS'OR4D1_HUMAN'
p3464
tp3465
Rp3466
ag1
(g2
(S'S11'
p3467
I0
I1
tp3468
Rp3469
(I3
S'|'
p3470
NNNI11
I1
I0
tp3471
bS'OR4D9_HUMAN'
p3472
tp3473
Rp3474
ag1
(g2
(S'S11'
p3475
I0
I1
tp3476
Rp3477
(I3
S'|'
p3478
NNNI11
I1
I0
tp3479
bS'OR4F4_HUMAN'
p3480
tp3481
Rp3482
ag1
(g2
(S'S11'
p3483
I0
I1
tp3484
Rp3485
(I3
S'|'
p3486
NNNI11
I1
I0
tp3487
bS'OR4K2_HUMAN'
p3488
tp3489
Rp3490
ag1
(g2
(S'S11'
p3491
I0
I1
tp3492
Rp3493
(I3
S'|'
p3494
NNNI11
I1
I0
tp3495
bS'OR4KD_HUMAN'
p3496
tp3497
Rp3498
ag1
(g2
(S'S11'
p3499
I0
I1
tp3500
Rp3501
(I3
S'|'
p3502
NNNI11
I1
I0
tp3503
bS'OR4M1_HUMAN'
p3504
tp3505
Rp3506
ag1
(g2
(S'S11'
p3507
I0
I1
tp3508
Rp3509
(I3
S'|'
p3510
NNNI11
I1
I0
tp3511
bS'OR4S1_HUMAN'
p3512
tp3513
Rp3514
ag1
(g2
(S'S11'
p3515
I0
I1
tp3516
Rp3517
(I3
S'|'
p3518
NNNI11
I1
I0
tp3519
bS'OR4X1_HUMAN'
p3520
tp3521
Rp3522
ag1
(g2
(S'S11'
p3523
I0
I1
tp3524
Rp3525
(I3
S'|'
p3526
NNNI11
I1
I0
tp3527
bS'OR5L2_HUMAN'
p3528
tp3529
Rp3530
ag1
(g2
(S'S11'
p3531
I0
I1
tp3532
Rp3533
(I3
S'|'
p3534
NNNI11
I1
I0
tp3535
bS'OR5M9_HUMAN'
p3536
tp3537
Rp3538
ag1
(g2
(S'S11'
p3539
I0
I1
tp3540
Rp3541
(I3
S'|'
p3542
NNNI11
I1
I0
tp3543
bS'OR6N2_HUMAN'
p3544
tp3545
Rp3546
ag1
(g2
(S'S11'
p3547
I0
I1
tp3548
Rp3549
(I3
S'|'
p3550
NNNI11
I1
I0
tp3551
bS'OR6V1_HUMAN'
p3552
tp3553
Rp3554
ag1
(g2
(S'S11'
p3555
I0
I1
tp3556
Rp3557
(I3
S'|'
p3558
NNNI11
I1
I0
tp3559
bS'OR7A2_HUMAN'
p3560
tp3561
Rp3562
ag1
(g2
(S'S11'
p3563
I0
I1
tp3564
Rp3565
(I3
S'|'
p3566
NNNI11
I1
I0
tp3567
bS'OR83P_HUMAN'
p3568
tp3569
Rp3570
ag1
(g2
(S'S11'
p3571
I0
I1
tp3572
Rp3573
(I3
S'|'
p3574
NNNI11
I1
I0
tp3575
bS'OR8A1_HUMAN'
p3576
tp3577
Rp3578
ag1
(g2
(S'S11'
p3579
I0
I1
tp3580
Rp3581
(I3
S'|'
p3582
NNNI11
I1
I0
tp3583
bS'OR8D2_HUMAN'
p3584
tp3585
Rp3586
ag1
(g2
(S'S11'
p3587
I0
I1
tp3588
Rp3589
(I3
S'|'
p3590
NNNI11
I1
I0
tp3591
bS'OR8G2_HUMAN'
p3592
tp3593
Rp3594
ag1
(g2
(S'S11'
p3595
I0
I1
tp3596
Rp3597
(I3
S'|'
p3598
NNNI11
I1
I0
tp3599
bS'OR8H1_HUMAN'
p3600
tp3601
Rp3602
ag1
(g2
(S'S11'
p3603
I0
I1
tp3604
Rp3605
(I3
S'|'
p3606
NNNI11
I1
I0
tp3607
bS'OR8J2_HUMAN'
p3608
tp3609
Rp3610
ag1
(g2
(S'S11'
p3611
I0
I1
tp3612
Rp3613
(I3
S'|'
p3614
NNNI11
I1
I0
tp3615
bS'OR8K5_HUMAN'
p3616
tp3617
Rp3618
ag1
(g2
(S'S11'
p3619
I0
I1
tp3620
Rp3621
(I3
S'|'
p3622
NNNI11
I1
I0
tp3623
bS'OR8U8_HUMAN'
p3624
tp3625
Rp3626
ag1
(g2
(S'S11'
p3627
I0
I1
tp3628
Rp3629
(I3
S'|'
p3630
NNNI11
I1
I0
tp3631
bS'OR9A4_HUMAN'
p3632
tp3633
Rp3634
ag1
(g2
(S'S11'
p3635
I0
I1
tp3636
Rp3637
(I3
S'|'
p3638
NNNI11
I1
I0
tp3639
bS'OR9G9_HUMAN'
p3640
tp3641
Rp3642
ag1
(g2
(S'S11'
p3643
I0
I1
tp3644
Rp3645
(I3
S'|'
p3646
NNNI11
I1
I0
tp3647
bS'OR9K2_HUMAN'
p3648
tp3649
Rp3650
ag1
(g2
(S'S11'
p3651
I0
I1
tp3652
Rp3653
(I3
S'|'
p3654
NNNI11
I1
I0
tp3655
bS'O2A14_HUMAN'
p3656
tp3657
Rp3658
ag1
(g2
(S'S11'
p3659
I0
I1
tp3660
Rp3661
(I3
S'|'
p3662
NNNI11
I1
I0
tp3663
bS'O2T10_HUMAN'
p3664
tp3665
Rp3666
ag1
(g2
(S'S11'
p3667
I0
I1
tp3668
Rp3669
(I3
S'|'
p3670
NNNI11
I1
I0
tp3671
bS'O2T33_HUMAN'
p3672
tp3673
Rp3674
ag1
(g2
(S'S11'
p3675
I0
I1
tp3676
Rp3677
(I3
S'|'
p3678
NNNI11
I1
I0
tp3679
bS'O4A16_HUMAN'
p3680
tp3681
Rp3682
ag1
(g2
(S'S11'
p3683
I0
I1
tp3684
Rp3685
(I3
S'|'
p3686
NNNI11
I1
I0
tp3687
bS'O4C45_HUMAN'
p3688
tp3689
Rp3690
ag1
(g2
(S'S11'
p3691
I0
I1
tp3692
Rp3693
(I3
S'|'
p3694
NNNI11
I1
I0
tp3695
bS'O51A2_HUMAN'
p3696
tp3697
Rp3698
ag1
(g2
(S'S11'
p3699
I0
I1
tp3700
Rp3701
(I3
S'|'
p3702
NNNI11
I1
I0
tp3703
bS'O51B2_HUMAN'
p3704
tp3705
Rp3706
ag1
(g2
(S'S11'
p3707
I0
I1
tp3708
Rp3709
(I3
S'|'
p3710
NNNI11
I1
I0
tp3711
bS'O51F2_HUMAN'
p3712
tp3713
Rp3714
ag1
(g2
(S'S10'
p3715
I0
I1
tp3716
Rp3717
(I3
S'|'
p3718
NNNI10
I1
I0
tp3719
bS'OPRX_HUMAN'
p3720
tp3721
Rp3722
ag1
(g2
(S'S11'
p3723
I0
I1
tp3724
Rp3725
(I3
S'|'
p3726
NNNI11
I1
I0
tp3727
bS'OR1A2_HUMAN'
p3728
tp3729
Rp3730
ag1
(g2
(S'S11'
p3731
I0
I1
tp3732
Rp3733
(I3
S'|'
p3734
NNNI11
I1
I0
tp3735
bS'OR1C1_HUMAN'
p3736
tp3737
Rp3738
ag1
(g2
(S'S11'
p3739
I0
I1
tp3740
Rp3741
(I3
S'|'
p3742
NNNI11
I1
I0
tp3743
bS'OR1E1_HUMAN'
p3744
tp3745
Rp3746
ag1
(g2
(S'S11'
p3747
I0
I1
tp3748
Rp3749
(I3
S'|'
p3750
NNNI11
I1
I0
tp3751
bS'OR1J1_HUMAN'
p3752
tp3753
Rp3754
ag1
(g2
(S'S11'
p3755
I0
I1
tp3756
Rp3757
(I3
S'|'
p3758
NNNI11
I1
I0
tp3759
bS'OR1K1_HUMAN'
p3760
tp3761
Rp3762
ag1
(g2
(S'S11'
p3763
I0
I1
tp3764
Rp3765
(I3
S'|'
p3766
NNNI11
I1
I0
tp3767
bS'OR1L6_HUMAN'
p3768
tp3769
Rp3770
ag1
(g2
(S'S11'
p3771
I0
I1
tp3772
Rp3773
(I3
S'|'
p3774
NNNI11
I1
I0
tp3775
bS'OR1M1_HUMAN'
p3776
tp3777
Rp3778
ag1
(g2
(S'S11'
p3779
I0
I1
tp3780
Rp3781
(I3
S'|'
p3782
NNNI11
I1
I0
tp3783
bS'OR1P1_HUMAN'
p3784
tp3785
Rp3786
ag1
(g2
(S'S11'
p3787
I0
I1
tp3788
Rp3789
(I3
S'|'
p3790
NNNI11
I1
I0
tp3791
bS'OR1S2_HUMAN'
p3792
tp3793
Rp3794
ag1
(g2
(S'S11'
p3795
I0
I1
tp3796
Rp3797
(I3
S'|'
p3798
NNNI11
I1
I0
tp3799
bS'OR2A5_HUMAN'
p3800
tp3801
Rp3802
ag1
(g2
(S'S11'
p3803
I0
I1
tp3804
Rp3805
(I3
S'|'
p3806
NNNI11
I1
I0
tp3807
bS'OR2G2_HUMAN'
p3808
tp3809
Rp3810
ag1
(g2
(S'S11'
p3811
I0
I1
tp3812
Rp3813
(I3
S'|'
p3814
NNNI11
I1
I0
tp3815
bS'OR2H1_HUMAN'
p3816
tp3817
Rp3818
ag1
(g2
(S'S11'
p3819
I0
I1
tp3820
Rp3821
(I3
S'|'
p3822
NNNI11
I1
I0
tp3823
bS'OR2K2_HUMAN'
p3824
tp3825
Rp3826
ag1
(g2
(S'S11'
p3827
I0
I1
tp3828
Rp3829
(I3
S'|'
p3830
NNNI11
I1
I0
tp3831
bS'OR2M2_HUMAN'
p3832
tp3833
Rp3834
ag1
(g2
(S'S11'
p3835
I0
I1
tp3836
Rp3837
(I3
S'|'
p3838
NNNI11
I1
I0
tp3839
bS'OR2M7_HUMAN'
p3840
tp3841
Rp3842
ag1
(g2
(S'S11'
p3843
I0
I1
tp3844
Rp3845
(I3
S'|'
p3846
NNNI11
I1
I0
tp3847
bS'OR2T2_HUMAN'
p3848
tp3849
Rp3850
ag1
(g2
(S'S11'
p3851
I0
I1
tp3852
Rp3853
(I3
S'|'
p3854
NNNI11
I1
I0
tp3855
bS'OR2T6_HUMAN'
p3856
tp3857
Rp3858
ag1
(g2
(S'S11'
p3859
I0
I1
tp3860
Rp3861
(I3
S'|'
p3862
NNNI11
I1
I0
tp3863
bS'OR2V2_HUMAN'
p3864
tp3865
Rp3866
ag1
(g2
(S'S11'
p3867
I0
I1
tp3868
Rp3869
(I3
S'|'
p3870
NNNI11
I1
I0
tp3871
bS'OR2Y1_HUMAN'
p3872
tp3873
Rp3874
ag1
(g2
(S'S11'
p3875
I0
I1
tp3876
Rp3877
(I3
S'|'
p3878
NNNI11
I1
I0
tp3879
bS'OR4A5_HUMAN'
p3880
tp3881
Rp3882
ag1
(g2
(S'S11'
p3883
I0
I1
tp3884
Rp3885
(I3
S'|'
p3886
NNNI11
I1
I0
tp3887
bS'OR4CC_HUMAN'
p3888
tp3889
Rp3890
ag1
(g2
(S'S11'
p3891
I0
I1
tp3892
Rp3893
(I3
S'|'
p3894
NNNI11
I1
I0
tp3895
bS'OR4CF_HUMAN'
p3896
tp3897
Rp3898
ag1
(g2
(S'S11'
p3899
I0
I1
tp3900
Rp3901
(I3
S'|'
p3902
NNNI11
I1
I0
tp3903
bS'OR4D2_HUMAN'
p3904
tp3905
Rp3906
ag1
(g2
(S'S11'
p3907
I0
I1
tp3908
Rp3909
(I3
S'|'
p3910
NNNI11
I1
I0
tp3911
bS'OR4DB_HUMAN'
p3912
tp3913
Rp3914
ag1
(g2
(S'S11'
p3915
I0
I1
tp3916
Rp3917
(I3
S'|'
p3918
NNNI11
I1
I0
tp3919
bS'OR4E2_HUMAN'
p3920
tp3921
Rp3922
ag1
(g2
(S'S11'
p3923
I0
I1
tp3924
Rp3925
(I3
S'|'
p3926
NNNI11
I1
I0
tp3927
bS'OR4F5_HUMAN'
p3928
tp3929
Rp3930
ag1
(g2
(S'S11'
p3931
I0
I1
tp3932
Rp3933
(I3
S'|'
p3934
NNNI11
I1
I0
tp3935
bS'OR4KE_HUMAN'
p3936
tp3937
Rp3938
ag1
(g2
(S'S11'
p3939
I0
I1
tp3940
Rp3941
(I3
S'|'
p3942
NNNI11
I1
I0
tp3943
bS'OR4KH_HUMAN'
p3944
tp3945
Rp3946
ag1
(g2
(S'S11'
p3947
I0
I1
tp3948
Rp3949
(I3
S'|'
p3950
NNNI11
I1
I0
tp3951
bS'OR4N4_HUMAN'
p3952
tp3953
Rp3954
ag1
(g2
(S'S11'
p3955
I0
I1
tp3956
Rp3957
(I3
S'|'
p3958
NNNI11
I1
I0
tp3959
bS'OR4Q2_HUMAN'
p3960
tp3961
Rp3962
ag1
(g2
(S'S11'
p3963
I0
I1
tp3964
Rp3965
(I3
S'|'
p3966
NNNI11
I1
I0
tp3967
bS'OR4S2_HUMAN'
p3968
tp3969
Rp3970
ag1
(g2
(S'S11'
p3971
I0
I1
tp3972
Rp3973
(I3
S'|'
p3974
NNNI11
I1
I0
tp3975
bS'OR5A1_HUMAN'
p3976
tp3977
Rp3978
ag1
(g2
(S'S11'
p3979
I0
I1
tp3980
Rp3981
(I3
S'|'
p3982
NNNI11
I1
I0
tp3983
bS'OR5BH_HUMAN'
p3984
tp3985
Rp3986
ag1
(g2
(S'S11'
p3987
I0
I1
tp3988
Rp3989
(I3
S'|'
p3990
NNNI11
I1
I0
tp3991
bS'OR5DD_HUMAN'
p3992
tp3993
Rp3994
ag1
(g2
(S'S11'
p3995
I0
I1
tp3996
Rp3997
(I3
S'|'
p3998
NNNI11
I1
I0
tp3999
bS'OR5DI_HUMAN'
p4000
tp4001
Rp4002
ag1
(g2
(S'S11'
p4003
I0
I1
tp4004
Rp4005
(I3
S'|'
p4006
NNNI11
I1
I0
tp4007
bS'OR5H6_HUMAN'
p4008
tp4009
Rp4010
ag1
(g2
(S'S10'
p4011
I0
I1
tp4012
Rp4013
(I3
S'|'
p4014
NNNI10
I1
I0
tp4015
bS'NTR1_HUMAN'
p4016
tp4017
Rp4018
ag1
(g2
(S'S11'
p4019
I0
I1
tp4020
Rp4021
(I3
S'|'
p4022
NNNI11
I1
I0
tp4023
bS'O51H1_HUMAN'
p4024
tp4025
Rp4026
ag1
(g2
(S'S11'
p4027
I0
I1
tp4028
Rp4029
(I3
S'|'
p4030
NNNI11
I1
I0
tp4031
bS'O52E1_HUMAN'
p4032
tp4033
Rp4034
ag1
(g2
(S'S11'
p4035
I0
I1
tp4036
Rp4037
(I3
S'|'
p4038
NNNI11
I1
I0
tp4039
bS'O52E5_HUMAN'
p4040
tp4041
Rp4042
ag1
(g2
(S'S11'
p4043
I0
I1
tp4044
Rp4045
(I3
S'|'
p4046
NNNI11
I1
I0
tp4047
bS'O52H1_HUMAN'
p4048
tp4049
Rp4050
ag1
(g2
(S'S11'
p4051
I0
I1
tp4052
Rp4053
(I3
S'|'
p4054
NNNI11
I1
I0
tp4055
bS'O52K1_HUMAN'
p4056
tp4057
Rp4058
ag1
(g2
(S'S11'
p4059
I0
I1
tp4060
Rp4061
(I3
S'|'
p4062
NNNI11
I1
I0
tp4063
bS'O52L1_HUMAN'
p4064
tp4065
Rp4066
ag1
(g2
(S'S11'
p4067
I0
I1
tp4068
Rp4069
(I3
S'|'
p4070
NNNI11
I1
I0
tp4071
bS'O52N4_HUMAN'
p4072
tp4073
Rp4074
ag1
(g2
(S'S11'
p4075
I0
I1
tp4076
Rp4077
(I3
S'|'
p4078
NNNI11
I1
I0
tp4079
bS'O56A3_HUMAN'
p4080
tp4081
Rp4082
ag1
(g2
(S'S11'
p4083
I0
I1
tp4084
Rp4085
(I3
S'|'
p4086
NNNI11
I1
I0
tp4087
bS'O56A4_HUMAN'
p4088
tp4089
Rp4090
ag1
(g2
(S'S11'
p4091
I0
I1
tp4092
Rp4093
(I3
S'|'
p4094
NNNI11
I1
I0
tp4095
bS'O56A5_HUMAN'
p4096
tp4097
Rp4098
ag1
(g2
(S'S11'
p4099
I0
I1
tp4100
Rp4101
(I3
S'|'
p4102
NNNI11
I1
I0
tp4103
bS'O6C68_HUMAN'
p4104
tp4105
Rp4106
ag1
(g2
(S'S11'
p4107
I0
I1
tp4108
Rp4109
(I3
S'|'
p4110
NNNI11
I1
I0
tp4111
bS'O10K1_HUMAN'
p4112
tp4113
Rp4114
ag1
(g2
(S'S11'
p4115
I0
I1
tp4116
Rp4117
(I3
S'|'
p4118
NNNI11
I1
I0
tp4119
bS'O10Z1_HUMAN'
p4120
tp4121
Rp4122
ag1
(g2
(S'S11'
p4123
I0
I1
tp4124
Rp4125
(I3
S'|'
p4126
NNNI11
I1
I0
tp4127
bS'O11G2_HUMAN'
p4128
tp4129
Rp4130
ag1
(g2
(S'S11'
p4131
I0
I1
tp4132
Rp4133
(I3
S'|'
p4134
NNNI11
I1
I0
tp4135
bS'O11H1_HUMAN'
p4136
tp4137
Rp4138
ag1
(g2
(S'S11'
p4139
I0
I1
tp4140
Rp4141
(I3
S'|'
p4142
NNNI11
I1
I0
tp4143
bS'O11L1_HUMAN'
p4144
tp4145
Rp4146
ag1
(g2
(S'S11'
p4147
I0
I1
tp4148
Rp4149
(I3
S'|'
p4150
NNNI11
I1
I0
tp4151
bS'O12D2_HUMAN'
p4152
tp4153
Rp4154
ag1
(g2
(S'S11'
p4155
I0
I1
tp4156
Rp4157
(I3
S'|'
p4158
NNNI11
I1
I0
tp4159
bS'O12D1_HUMAN'
p4160
tp4161
Rp4162
ag1
(g2
(S'S11'
p4163
I0
I1
tp4164
Rp4165
(I3
S'|'
p4166
NNNI11
I1
I0
tp4167
bS'O13C3_HUMAN'
p4168
tp4169
Rp4170
ag1
(g2
(S'S11'
p4171
I0
I1
tp4172
Rp4173
(I3
S'|'
p4174
NNNI11
I1
I0
tp4175
bS'O13H1_HUMAN'
p4176
tp4177
Rp4178
ag1
(g2
(S'S11'
p4179
I0
I1
tp4180
Rp4181
(I3
S'|'
p4182
NNNI11
I1
I0
tp4183
bS'O14CZ_HUMAN'
p4184
tp4185
Rp4186
ag1
(g2
(S'S11'
p4187
I0
I1
tp4188
Rp4189
(I3
S'|'
p4190
NNNI11
I1
I0
tp4191
bS'OR2F1_HUMAN'
p4192
tp4193
Rp4194
ag1
(g2
(S'S11'
p4195
I0
I1
tp4196
Rp4197
(I3
S'|'
p4198
NNNI11
I1
I0
tp4199
bS'OR2J1_HUMAN'
p4200
tp4201
Rp4202
ag1
(g2
(S'S11'
p4203
I0
I1
tp4204
Rp4205
(I3
S'|'
p4206
NNNI11
I1
I0
tp4207
bS'OR2L5_HUMAN'
p4208
tp4209
Rp4210
ag1
(g2
(S'S11'
p4211
I0
I1
tp4212
Rp4213
(I3
S'|'
p4214
NNNI11
I1
I0
tp4215
bS'OR2M3_HUMAN'
p4216
tp4217
Rp4218
ag1
(g2
(S'S11'
p4219
I0
I1
tp4220
Rp4221
(I3
S'|'
p4222
NNNI11
I1
I0
tp4223
bS'OR2S1_HUMAN'
p4224
tp4225
Rp4226
ag1
(g2
(S'S11'
p4227
I0
I1
tp4228
Rp4229
(I3
S'|'
p4230
NNNI11
I1
I0
tp4231
bS'OR2T3_HUMAN'
p4232
tp4233
Rp4234
ag1
(g2
(S'S11'
p4235
I0
I1
tp4236
Rp4237
(I3
S'|'
p4238
NNNI11
I1
I0
tp4239
bS'OR2T7_HUMAN'
p4240
tp4241
Rp4242
ag1
(g2
(S'S11'
p4243
I0
I1
tp4244
Rp4245
(I3
S'|'
p4246
NNNI11
I1
I0
tp4247
bS'OR2W1_HUMAN'
p4248
tp4249
Rp4250
ag1
(g2
(S'S11'
p4251
I0
I1
tp4252
Rp4253
(I3
S'|'
p4254
NNNI11
I1
I0
tp4255
bS'OR3A3_HUMAN'
p4256
tp4257
Rp4258
ag1
(g2
(S'S11'
p4259
I0
I1
tp4260
Rp4261
(I3
S'|'
p4262
NNNI11
I1
I0
tp4263
bS'OR4A4_HUMAN'
p4264
tp4265
Rp4266
ag1
(g2
(S'S11'
p4267
I0
I1
tp4268
Rp4269
(I3
S'|'
p4270
NNNI11
I1
I0
tp4271
bS'OR4C3_HUMAN'
p4272
tp4273
Rp4274
ag1
(g2
(S'S11'
p4275
I0
I1
tp4276
Rp4277
(I3
S'|'
p4278
NNNI11
I1
I0
tp4279
bS'OR4CG_HUMAN'
p4280
tp4281
Rp4282
ag1
(g2
(S'S11'
p4283
I0
I1
tp4284
Rp4285
(I3
S'|'
p4286
NNNI11
I1
I0
tp4287
bS'OR4D5_HUMAN'
p4288
tp4289
Rp4290
ag1
(g2
(S'S11'
p4291
I0
I1
tp4292
Rp4293
(I3
S'|'
p4294
NNNI11
I1
I0
tp4295
bS'OR4DA_HUMAN'
p4296
tp4297
Rp4298
ag1
(g2
(S'S11'
p4299
I0
I1
tp4300
Rp4301
(I3
S'|'
p4302
NNNI11
I1
I0
tp4303
bS'OR4F3_HUMAN'
p4304
tp4305
Rp4306
ag1
(g2
(S'S11'
p4307
I0
I1
tp4308
Rp4309
(I3
S'|'
p4310
NNNI11
I1
I0
tp4311
bS'OR5B2_HUMAN'
p4312
tp4313
Rp4314
ag1
(g2
(S'S11'
p4315
I0
I1
tp4316
Rp4317
(I3
S'|'
p4318
NNNI11
I1
I0
tp4319
bS'OR5H8_HUMAN'
p4320
tp4321
Rp4322
ag1
(g2
(S'S11'
p4323
I0
I1
tp4324
Rp4325
(I3
S'|'
p4326
NNNI11
I1
I0
tp4327
bS'OR5K2_HUMAN'
p4328
tp4329
Rp4330
ag1
(g2
(S'S11'
p4331
I0
I1
tp4332
Rp4333
(I3
S'|'
p4334
NNNI11
I1
I0
tp4335
bS'OR5M1_HUMAN'
p4336
tp4337
Rp4338
ag1
(g2
(S'S11'
p4339
I0
I1
tp4340
Rp4341
(I3
S'|'
p4342
NNNI11
I1
I0
tp4343
bS'OR5M8_HUMAN'
p4344
tp4345
Rp4346
ag1
(g2
(S'S11'
p4347
I0
I1
tp4348
Rp4349
(I3
S'|'
p4350
NNNI11
I1
I0
tp4351
bS'OR5P2_HUMAN'
p4352
tp4353
Rp4354
ag1
(g2
(S'S11'
p4355
I0
I1
tp4356
Rp4357
(I3
S'|'
p4358
NNNI11
I1
I0
tp4359
bS'OR5R1_HUMAN'
p4360
tp4361
Rp4362
ag1
(g2
(S'S11'
p4363
I0
I1
tp4364
Rp4365
(I3
S'|'
p4366
NNNI11
I1
I0
tp4367
bS'OR5T3_HUMAN'
p4368
tp4369
Rp4370
ag1
(g2
(S'S11'
p4371
I0
I1
tp4372
Rp4373
(I3
S'|'
p4374
NNNI11
I1
I0
tp4375
bS'OR6B3_HUMAN'
p4376
tp4377
Rp4378
ag1
(g2
(S'S11'
p4379
I0
I1
tp4380
Rp4381
(I3
S'|'
p4382
NNNI11
I1
I0
tp4383
bS'OR6C3_HUMAN'
p4384
tp4385
Rp4386
ag1
(g2
(S'S11'
p4387
I0
I1
tp4388
Rp4389
(I3
S'|'
p4390
NNNI11
I1
I0
tp4391
bS'OR6C6_HUMAN'
p4392
tp4393
Rp4394
ag1
(g2
(S'S11'
p4395
I0
I1
tp4396
Rp4397
(I3
S'|'
p4398
NNNI11
I1
I0
tp4399
bS'OR6K6_HUMAN'
p4400
tp4401
Rp4402
ag1
(g2
(S'S11'
p4403
I0
I1
tp4404
Rp4405
(I3
S'|'
p4406
NNNI11
I1
I0
tp4407
bS'OR6Q1_HUMAN'
p4408
tp4409
Rp4410
ag1
(g2
(S'S11'
p4411
I0
I1
tp4412
Rp4413
(I3
S'|'
p4414
NNNI11
I1
I0
tp4415
bS'OR6Y1_HUMAN'
p4416
tp4417
Rp4418
ag1
(g2
(S'S11'
p4419
I0
I1
tp4420
Rp4421
(I3
S'|'
p4422
NNNI11
I1
I0
tp4423
bS'OR7A5_HUMAN'
p4424
tp4425
Rp4426
ag1
(g2
(S'S11'
p4427
I0
I1
tp4428
Rp4429
(I3
S'|'
p4430
NNNI11
I1
I0
tp4431
bS'OR7C2_HUMAN'
p4432
tp4433
Rp4434
ag1
(g2
(S'S11'
p4435
I0
I1
tp4436
Rp4437
(I3
S'|'
p4438
NNNI11
I1
I0
tp4439
bS'OR7G2_HUMAN'
p4440
tp4441
Rp4442
ag1
(g2
(S'S11'
p4443
I0
I1
tp4444
Rp4445
(I3
S'|'
p4446
NNNI11
I1
I0
tp4447
bS'OR8B8_HUMAN'
p4448
tp4449
Rp4450
ag1
(g2
(S'S11'
p4451
I0
I1
tp4452
Rp4453
(I3
S'|'
p4454
NNNI11
I1
I0
tp4455
bS'OR8S1_HUMAN'
p4456
tp4457
Rp4458
ag1
(g2
(S'S11'
p4459
I0
I1
tp4460
Rp4461
(I3
S'|'
p4462
NNNI11
I1
I0
tp4463
bS'OR9Q2_HUMAN'
p4464
tp4465
Rp4466
ag1
(g2
(S'S11'
p4467
I0
I1
tp4468
Rp4469
(I3
S'|'
p4470
NNNI11
I1
I0
tp4471
bS'O2AG1_HUMAN'
p4472
tp4473
Rp4474
ag1
(g2
(S'S11'
p4475
I0
I1
tp4476
Rp4477
(I3
S'|'
p4478
NNNI11
I1
I0
tp4479
bS'O2AP1_HUMAN'
p4480
tp4481
Rp4482
ag1
(g2
(S'S11'
p4483
I0
I1
tp4484
Rp4485
(I3
S'|'
p4486
NNNI11
I1
I0
tp4487
bS'O2T11_HUMAN'
p4488
tp4489
Rp4490
ag1
(g2
(S'S11'
p4491
I0
I1
tp4492
Rp4493
(I3
S'|'
p4494
NNNI11
I1
I0
tp4495
bS'O2T29_HUMAN'
p4496
tp4497
Rp4498
ag1
(g2
(S'S11'
p4499
I0
I1
tp4500
Rp4501
(I3
S'|'
p4502
NNNI11
I1
I0
tp4503
bS'O4C46_HUMAN'
p4504
tp4505
Rp4506
ag1
(g2
(S'S11'
p4507
I0
I1
tp4508
Rp4509
(I3
S'|'
p4510
NNNI11
I1
I0
tp4511
bS'O4F15_HUMAN'
p4512
tp4513
Rp4514
ag1
(g2
(S'S11'
p4515
I0
I1
tp4516
Rp4517
(I3
S'|'
p4518
NNNI11
I1
I0
tp4519
bS'O51A4_HUMAN'
p4520
tp4521
Rp4522
ag1
(g2
(S'S11'
p4523
I0
I1
tp4524
Rp4525
(I3
S'|'
p4526
NNNI11
I1
I0
tp4527
bS'O51G2_HUMAN'
p4528
tp4529
Rp4530
ag1
(g2
(S'S11'
p4531
I0
I1
tp4532
Rp4533
(I3
S'|'
p4534
NNNI11
I1
I0
tp4535
bS'O51J1_HUMAN'
p4536
tp4537
Rp4538
ag1
(g2
(S'S11'
p4539
I0
I1
tp4540
Rp4541
(I3
S'|'
p4542
NNNI11
I1
I0
tp4543
bS'O51Q1_HUMAN'
p4544
tp4545
Rp4546
ag1
(g2
(S'S11'
p4547
I0
I1
tp4548
Rp4549
(I3
S'|'
p4550
NNNI11
I1
I0
tp4551
bS'O51V1_HUMAN'
p4552
tp4553
Rp4554
ag1
(g2
(S'S11'
p4555
I0
I1
tp4556
Rp4557
(I3
S'|'
p4558
NNNI11
I1
I0
tp4559
bS'O52A5_HUMAN'
p4560
tp4561
Rp4562
ag1
(g2
(S'S11'
p4563
I0
I1
tp4564
Rp4565
(I3
S'|'
p4566
NNNI11
I1
I0
tp4567
bS'O52B4_HUMAN'
p4568
tp4569
Rp4570
ag1
(g2
(S'S11'
p4571
I0
I1
tp4572
Rp4573
(I3
S'|'
p4574
NNNI11
I1
I0
tp4575
bS'O6C70_HUMAN'
p4576
tp4577
Rp4578
ag1
(g2
(S'S11'
p4579
I0
I1
tp4580
Rp4581
(I3
S'|'
p4582
NNNI11
I1
I0
tp4583
bS'O7E24_HUMAN'
p4584
tp4585
Rp4586
ag1
(g2
(S'S11'
p4587
I0
I1
tp4588
Rp4589
(I3
S'|'
p4590
NNNI11
I1
I0
tp4591
bS'OXER1_HUMAN'
p4592
tp4593
Rp4594
ag1
(g2
(S'S10'
p4595
I0
I1
tp4596
Rp4597
(I3
S'|'
p4598
NNNI10
I1
I0
tp4599
bS'OPRK_HUMAN'
p4600
tp4601
Rp4602
ag1
(g2
(S'S10'
p4603
I0
I1
tp4604
Rp4605
(I3
S'|'
p4606
NNNI10
I1
I0
tp4607
bS'OPRM_HUMAN'
p4608
tp4609
Rp4610
ag1
(g2
(S'S10'
p4611
I0
I1
tp4612
Rp4613
(I3
S'|'
p4614
NNNI10
I1
I0
tp4615
bS'OPSB_HUMAN'
p4616
tp4617
Rp4618
ag1
(g2
(S'S11'
p4619
I0
I1
tp4620
Rp4621
(I3
S'|'
p4622
NNNI11
I1
I0
tp4623
bS'OPSG3_HUMAN'
p4624
tp4625
Rp4626
ag1
(g2
(S'S11'
p4627
I0
I1
tp4628
Rp4629
(I3
S'|'
p4630
NNNI11
I1
I0
tp4631
bS'OR1F1_HUMAN'
p4632
tp4633
Rp4634
ag1
(g2
(S'S11'
p4635
I0
I1
tp4636
Rp4637
(I3
S'|'
p4638
NNNI11
I1
I0
tp4639
bS'OR1J2_HUMAN'
p4640
tp4641
Rp4642
ag1
(g2
(S'S11'
p4643
I0
I1
tp4644
Rp4645
(I3
S'|'
p4646
NNNI11
I1
I0
tp4647
bS'OR1L4_HUMAN'
p4648
tp4649
Rp4650
ag1
(g2
(S'S11'
p4651
I0
I1
tp4652
Rp4653
(I3
S'|'
p4654
NNNI11
I1
I0
tp4655
bS'OR1L8_HUMAN'
p4656
tp4657
Rp4658
ag1
(g2
(S'S11'
p4659
I0
I1
tp4660
Rp4661
(I3
S'|'
p4662
NNNI11
I1
I0
tp4663
bS'OR1N1_HUMAN'
p4664
tp4665
Rp4666
ag1
(g2
(S'S11'
p4667
I0
I1
tp4668
Rp4669
(I3
S'|'
p4670
NNNI11
I1
I0
tp4671
bS'OR1S1_HUMAN'
p4672
tp4673
Rp4674
ag1
(g2
(S'S11'
p4675
I0
I1
tp4676
Rp4677
(I3
S'|'
p4678
NNNI11
I1
I0
tp4679
bS'OR2BB_HUMAN'
p4680
tp4681
Rp4682
ag1
(g2
(S'S11'
p4683
I0
I1
tp4684
Rp4685
(I3
S'|'
p4686
NNNI11
I1
I0
tp4687
bS'OR4A8_HUMAN'
p4688
tp4689
Rp4690
ag1
(g2
(S'S11'
p4691
I0
I1
tp4692
Rp4693
(I3
S'|'
p4694
NNNI11
I1
I0
tp4695
bS'OR4C5_HUMAN'
p4696
tp4697
Rp4698
ag1
(g2
(S'S11'
p4699
I0
I1
tp4700
Rp4701
(I3
S'|'
p4702
NNNI11
I1
I0
tp4703
bS'OR5A2_HUMAN'
p4704
tp4705
Rp4706
ag1
(g2
(S'S11'
p4707
I0
I1
tp4708
Rp4709
(I3
S'|'
p4710
NNNI11
I1
I0
tp4711
bS'OR5B3_HUMAN'
p4712
tp4713
Rp4714
ag1
(g2
(S'S11'
p4715
I0
I1
tp4716
Rp4717
(I3
S'|'
p4718
NNNI11
I1
I0
tp4719
bS'OR5C1_HUMAN'
p4720
tp4721
Rp4722
ag1
(g2
(S'S11'
p4723
I0
I1
tp4724
Rp4725
(I3
S'|'
p4726
NNNI11
I1
I0
tp4727
bS'OR5DG_HUMAN'
p4728
tp4729
Rp4730
ag1
(g2
(S'S11'
p4731
I0
I1
tp4732
Rp4733
(I3
S'|'
p4734
NNNI11
I1
I0
tp4735
bS'OR5G3_HUMAN'
p4736
tp4737
Rp4738
ag1
(g2
(S'S11'
p4739
I0
I1
tp4740
Rp4741
(I3
S'|'
p4742
NNNI11
I1
I0
tp4743
bS'OR5H2_HUMAN'
p4744
tp4745
Rp4746
ag1
(g2
(S'S11'
p4747
I0
I1
tp4748
Rp4749
(I3
S'|'
p4750
NNNI11
I1
I0
tp4751
bS'OR5J2_HUMAN'
p4752
tp4753
Rp4754
ag1
(g2
(S'S11'
p4755
I0
I1
tp4756
Rp4757
(I3
S'|'
p4758
NNNI11
I1
I0
tp4759
bS'OR5K3_HUMAN'
p4760
tp4761
Rp4762
ag1
(g2
(S'S11'
p4763
I0
I1
tp4764
Rp4765
(I3
S'|'
p4766
NNNI11
I1
I0
tp4767
bS'OR5MB_HUMAN'
p4768
tp4769
Rp4770
ag1
(g2
(S'S11'
p4771
I0
I1
tp4772
Rp4773
(I3
S'|'
p4774
NNNI11
I1
I0
tp4775
bS'OR5T2_HUMAN'
p4776
tp4777
Rp4778
ag1
(g2
(S'S11'
p4779
I0
I1
tp4780
Rp4781
(I3
S'|'
p4782
NNNI11
I1
I0
tp4783
bS'OR5W2_HUMAN'
p4784
tp4785
Rp4786
ag1
(g2
(S'S11'
p4787
I0
I1
tp4788
Rp4789
(I3
S'|'
p4790
NNNI11
I1
I0
tp4791
bS'OR6B2_HUMAN'
p4792
tp4793
Rp4794
ag1
(g2
(S'S11'
p4795
I0
I1
tp4796
Rp4797
(I3
S'|'
p4798
NNNI11
I1
I0
tp4799
bS'OR6J1_HUMAN'
p4800
tp4801
Rp4802
ag1
(g2
(S'S11'
p4803
I0
I1
tp4804
Rp4805
(I3
S'|'
p4806
NNNI11
I1
I0
tp4807
bS'OR6K3_HUMAN'
p4808
tp4809
Rp4810
ag1
(g2
(S'S11'
p4811
I0
I1
tp4812
Rp4813
(I3
S'|'
p4814
NNNI11
I1
I0
tp4815
bS'OR6S1_HUMAN'
p4816
tp4817
Rp4818
ag1
(g2
(S'S11'
p4819
I0
I1
tp4820
Rp4821
(I3
S'|'
p4822
NNNI11
I1
I0
tp4823
bS'OR6X1_HUMAN'
p4824
tp4825
Rp4826
ag1
(g2
(S'S11'
p4827
I0
I1
tp4828
Rp4829
(I3
S'|'
p4830
NNNI11
I1
I0
tp4831
bS'OR7D2_HUMAN'
p4832
tp4833
Rp4834
ag1
(g2
(S'S11'
p4835
I0
I1
tp4836
Rp4837
(I3
S'|'
p4838
NNNI11
I1
I0
tp4839
bS'OR7G3_HUMAN'
p4840
tp4841
Rp4842
ag1
(g2
(S'S11'
p4843
I0
I1
tp4844
Rp4845
(I3
S'|'
p4846
NNNI11
I1
I0
tp4847
bS'OR8B2_HUMAN'
p4848
tp4849
Rp4850
ag1
(g2
(S'S10'
p4851
I0
I1
tp4852
Rp4853
(I3
S'|'
p4854
NNNI10
I1
I0
tp4855
bS'PACR_HUMAN'
p4856
tp4857
Rp4858
ag1
(g2
(S'S10'
p4859
I0
I1
tp4860
Rp4861
(I3
S'|'
p4862
NNNI10
I1
I0
tp4863
bS'OPN3_HUMAN'
p4864
tp4865
Rp4866
ag1
(g2
(S'S11'
p4867
I0
I1
tp4868
Rp4869
(I3
S'|'
p4870
NNNI11
I1
I0
tp4871
bS'OR1D4_HUMAN'
p4872
tp4873
Rp4874
ag1
(g2
(S'S11'
p4875
I0
I1
tp4876
Rp4877
(I3
S'|'
p4878
NNNI11
I1
I0
tp4879
bS'OR2A1_HUMAN'
p4880
tp4881
Rp4882
ag1
(g2
(S'S11'
p4883
I0
I1
tp4884
Rp4885
(I3
S'|'
p4886
NNNI11
I1
I0
tp4887
bS'OR2A4_HUMAN'
p4888
tp4889
Rp4890
ag1
(g2
(S'S11'
p4891
I0
I1
tp4892
Rp4893
(I3
S'|'
p4894
NNNI11
I1
I0
tp4895
bS'OR2B8_HUMAN'
p4896
tp4897
Rp4898
ag1
(g2
(S'S11'
p4899
I0
I1
tp4900
Rp4901
(I3
S'|'
p4902
NNNI11
I1
I0
tp4903
bS'OR2C3_HUMAN'
p4904
tp4905
Rp4906
ag1
(g2
(S'S11'
p4907
I0
I1
tp4908
Rp4909
(I3
S'|'
p4910
NNNI11
I1
I0
tp4911
bS'OR2L2_HUMAN'
p4912
tp4913
Rp4914
ag1
(g2
(S'S11'
p4915
I0
I1
tp4916
Rp4917
(I3
S'|'
p4918
NNNI11
I1
I0
tp4919
bS'OR2LD_HUMAN'
p4920
tp4921
Rp4922
ag1
(g2
(S'S11'
p4923
I0
I1
tp4924
Rp4925
(I3
S'|'
p4926
NNNI11
I1
I0
tp4927
bS'OR2T5_HUMAN'
p4928
tp4929
Rp4930
ag1
(g2
(S'S11'
p4931
I0
I1
tp4932
Rp4933
(I3
S'|'
p4934
NNNI11
I1
I0
tp4935
bS'OR2V1_HUMAN'
p4936
tp4937
Rp4938
ag1
(g2
(S'S11'
p4939
I0
I1
tp4940
Rp4941
(I3
S'|'
p4942
NNNI11
I1
I0
tp4943
bS'OR2Z1_HUMAN'
p4944
tp4945
Rp4946
ag1
(g2
(S'S11'
p4947
I0
I1
tp4948
Rp4949
(I3
S'|'
p4950
NNNI11
I1
I0
tp4951
bS'OR4B1_HUMAN'
p4952
tp4953
Rp4954
ag1
(g2
(S'S11'
p4955
I0
I1
tp4956
Rp4957
(I3
S'|'
p4958
NNNI11
I1
I0
tp4959
bS'OR4CD_HUMAN'
p4960
tp4961
Rp4962
ag1
(g2
(S'S11'
p4963
I0
I1
tp4964
Rp4965
(I3
S'|'
p4966
NNNI11
I1
I0
tp4967
bS'OR4D6_HUMAN'
p4968
tp4969
Rp4970
ag1
(g2
(S'S11'
p4971
I0
I1
tp4972
Rp4973
(I3
S'|'
p4974
NNNI11
I1
I0
tp4975
bS'OR4E1_HUMAN'
p4976
tp4977
Rp4978
ag1
(g2
(S'S11'
p4979
I0
I1
tp4980
Rp4981
(I3
S'|'
p4982
NNNI11
I1
I0
tp4983
bS'OR4F6_HUMAN'
p4984
tp4985
Rp4986
ag1
(g2
(S'S11'
p4987
I0
I1
tp4988
Rp4989
(I3
S'|'
p4990
NNNI11
I1
I0
tp4991
bS'OR4K5_HUMAN'
p4992
tp4993
Rp4994
ag1
(g2
(S'S11'
p4995
I0
I1
tp4996
Rp4997
(I3
S'|'
p4998
NNNI11
I1
I0
tp4999
bS'OR4KF_HUMAN'
p5000
tp5001
Rp5002
ag1
(g2
(S'S11'
p5003
I0
I1
tp5004
Rp5005
(I3
S'|'
p5006
NNNI11
I1
I0
tp5007
bS'OR4M2_HUMAN'
p5008
tp5009
Rp5010
ag1
(g2
(S'S11'
p5011
I0
I1
tp5012
Rp5013
(I3
S'|'
p5014
NNNI11
I1
I0
tp5015
bS'OR4N5_HUMAN'
p5016
tp5017
Rp5018
ag1
(g2
(S'S11'
p5019
I0
I1
tp5020
Rp5021
(I3
S'|'
p5022
NNNI11
I1
I0
tp5023
bS'OR4X2_HUMAN'
p5024
tp5025
Rp5026
ag1
(g2
(S'S11'
p5027
I0
I1
tp5028
Rp5029
(I3
S'|'
p5030
NNNI11
I1
I0
tp5031
bS'OR5BC_HUMAN'
p5032
tp5033
Rp5034
ag1
(g2
(S'S11'
p5035
I0
I1
tp5036
Rp5037
(I3
S'|'
p5038
NNNI11
I1
I0
tp5039
bS'OR5H1_HUMAN'
p5040
tp5041
Rp5042
ag1
(g2
(S'S11'
p5043
I0
I1
tp5044
Rp5045
(I3
S'|'
p5046
NNNI11
I1
I0
tp5047
bS'OR5L1_HUMAN'
p5048
tp5049
Rp5050
ag1
(g2
(S'S11'
p5051
I0
I1
tp5052
Rp5053
(I3
S'|'
p5054
NNNI11
I1
I0
tp5055
bS'OR5MA_HUMAN'
p5056
tp5057
Rp5058
ag1
(g2
(S'S11'
p5059
I0
I1
tp5060
Rp5061
(I3
S'|'
p5062
NNNI11
I1
I0
tp5063
bS'OR5V1_HUMAN'
p5064
tp5065
Rp5066
ag1
(g2
(S'S11'
p5067
I0
I1
tp5068
Rp5069
(I3
S'|'
p5070
NNNI11
I1
I0
tp5071
bS'OR6P1_HUMAN'
p5072
tp5073
Rp5074
ag1
(g2
(S'S11'
p5075
I0
I1
tp5076
Rp5077
(I3
S'|'
p5078
NNNI11
I1
I0
tp5079
bS'OR6T1_HUMAN'
p5080
tp5081
Rp5082
ag1
(g2
(S'S11'
p5083
I0
I1
tp5084
Rp5085
(I3
S'|'
p5086
NNNI11
I1
I0
tp5087
bS'OR7AH_HUMAN'
p5088
tp5089
Rp5090
ag1
(g2
(S'S11'
p5091
I0
I1
tp5092
Rp5093
(I3
S'|'
p5094
NNNI11
I1
I0
tp5095
bS'OR7G1_HUMAN'
p5096
tp5097
Rp5098
ag1
(g2
(S'S11'
p5099
I0
I1
tp5100
Rp5101
(I3
S'|'
p5102
NNNI11
I1
I0
tp5103
bS'OR8BC_HUMAN'
p5104
tp5105
Rp5106
ag1
(g2
(S'S11'
p5107
I0
I1
tp5108
Rp5109
(I3
S'|'
p5110
NNNI11
I1
I0
tp5111
bS'OR8H2_HUMAN'
p5112
tp5113
Rp5114
ag1
(g2
(S'S11'
p5115
I0
I1
tp5116
Rp5117
(I3
S'|'
p5118
NNNI11
I1
I0
tp5119
bS'OR8I2_HUMAN'
p5120
tp5121
Rp5122
ag1
(g2
(S'S11'
p5123
I0
I1
tp5124
Rp5125
(I3
S'|'
p5126
NNNI11
I1
I0
tp5127
bS'OR8K1_HUMAN'
p5128
tp5129
Rp5130
ag1
(g2
(S'S11'
p5131
I0
I1
tp5132
Rp5133
(I3
S'|'
p5134
NNNI11
I1
I0
tp5135
bS'OR8U9_HUMAN'
p5136
tp5137
Rp5138
ag1
(g2
(S'S11'
p5139
I0
I1
tp5140
Rp5141
(I3
S'|'
p5142
NNNI11
I1
I0
tp5143
bS'P2RY4_HUMAN'
p5144
tp5145
Rp5146
ag1
(g2
(S'S11'
p5147
I0
I1
tp5148
Rp5149
(I3
S'|'
p5150
NNNI11
I1
I0
tp5151
bS'P2RY8_HUMAN'
p5152
tp5153
Rp5154
ag1
(g2
(S'S11'
p5155
I0
I1
tp5156
Rp5157
(I3
S'|'
p5158
NNNI11
I1
I0
tp5159
bS'P2Y12_HUMAN'
p5160
tp5161
Rp5162
ag1
(g2
(S'S11'
p5163
I0
I1
tp5164
Rp5165
(I3
S'|'
p5166
NNNI11
I1
I0
tp5167
bS'P2Y13_HUMAN'
p5168
tp5169
Rp5170
ag1
(g2
(S'S10'
p5171
I0
I1
tp5172
Rp5173
(I3
S'|'
p5174
NNNI10
I1
I0
tp5175
bS'OGR1_HUMAN'
p5176
tp5177
Rp5178
ag1
(g2
(S'S11'
p5179
I0
I1
tp5180
Rp5181
(I3
S'|'
p5182
NNNI11
I1
I0
tp5183
bS'OR5K4_HUMAN'
p5184
tp5185
Rp5186
ag1
(g2
(S'S11'
p5187
I0
I1
tp5188
Rp5189
(I3
S'|'
p5190
NNNI11
I1
I0
tp5191
bS'OR5M3_HUMAN'
p5192
tp5193
Rp5194
ag1
(g2
(S'S11'
p5195
I0
I1
tp5196
Rp5197
(I3
S'|'
p5198
NNNI11
I1
I0
tp5199
bS'OR5P3_HUMAN'
p5200
tp5201
Rp5202
ag1
(g2
(S'S11'
p5203
I0
I1
tp5204
Rp5205
(I3
S'|'
p5206
NNNI11
I1
I0
tp5207
bS'OR5T1_HUMAN'
p5208
tp5209
Rp5210
ag1
(g2
(S'S11'
p5211
I0
I1
tp5212
Rp5213
(I3
S'|'
p5214
NNNI11
I1
I0
tp5215
bS'OR6K2_HUMAN'
p5216
tp5217
Rp5218
ag1
(g2
(S'S11'
p5219
I0
I1
tp5220
Rp5221
(I3
S'|'
p5222
NNNI11
I1
I0
tp5223
bS'OR8B3_HUMAN'
p5224
tp5225
Rp5226
ag1
(g2
(S'S11'
p5227
I0
I1
tp5228
Rp5229
(I3
S'|'
p5230
NNNI11
I1
I0
tp5231
bS'OR9G1_HUMAN'
p5232
tp5233
Rp5234
ag1
(g2
(S'S11'
p5235
I0
I1
tp5236
Rp5237
(I3
S'|'
p5238
NNNI11
I1
I0
tp5239
bS'OR9Q1_HUMAN'
p5240
tp5241
Rp5242
ag1
(g2
(S'S10'
p5243
I0
I1
tp5244
Rp5245
(I3
S'|'
p5246
NNNI10
I1
I0
tp5247
bS'OXYR_HUMAN'
p5248
tp5249
Rp5250
ag1
(g2
(S'S11'
p5251
I0
I1
tp5252
Rp5253
(I3
S'|'
p5254
NNNI11
I1
I0
tp5255
bS'P2RY2_HUMAN'
p5256
tp5257
Rp5258
ag1
(g2
(S'S10'
p5259
I0
I1
tp5260
Rp5261
(I3
S'|'
p5262
NNNI10
I1
I0
tp5263
bS'OPN4_HUMAN'
p5264
tp5265
Rp5266
ag1
(g2
(S'S10'
p5267
I0
I1
tp5268
Rp5269
(I3
S'|'
p5270
NNNI10
I1
I0
tp5271
bS'OPSG_HUMAN'
p5272
tp5273
Rp5274
ag1
(g2
(S'S10'
p5275
I0
I1
tp5276
Rp5277
(I3
S'|'
p5278
NNNI10
I1
I0
tp5279
bS'OPSR_HUMAN'
p5280
tp5281
Rp5282
ag1
(g2
(S'S10'
p5283
I0
I1
tp5284
Rp5285
(I3
S'|'
p5286
NNNI10
I1
I0
tp5287
bS'OPSX_HUMAN'
p5288
tp5289
Rp5290
ag1
(g2
(S'S11'
p5291
I0
I1
tp5292
Rp5293
(I3
S'|'
p5294
NNNI11
I1
I0
tp5295
bS'OR2B2_HUMAN'
p5296
tp5297
Rp5298
ag1
(g2
(S'S11'
p5299
I0
I1
tp5300
Rp5301
(I3
S'|'
p5302
NNNI11
I1
I0
tp5303
bS'OR2F2_HUMAN'
p5304
tp5305
Rp5306
ag1
(g2
(S'S11'
p5307
I0
I1
tp5308
Rp5309
(I3
S'|'
p5310
NNNI11
I1
I0
tp5311
bS'OR2J3_HUMAN'
p5312
tp5313
Rp5314
ag1
(g2
(S'S11'
p5315
I0
I1
tp5316
Rp5317
(I3
S'|'
p5318
NNNI11
I1
I0
tp5319
bS'OR6B1_HUMAN'
p5320
tp5321
Rp5322
ag1
(g2
(S'S11'
p5323
I0
I1
tp5324
Rp5325
(I3
S'|'
p5326
NNNI11
I1
I0
tp5327
bS'OR6C2_HUMAN'
p5328
tp5329
Rp5330
ag1
(g2
(S'S11'
p5331
I0
I1
tp5332
Rp5333
(I3
S'|'
p5334
NNNI11
I1
I0
tp5335
bS'OR6C4_HUMAN'
p5336
tp5337
Rp5338
ag1
(g2
(S'S11'
p5339
I0
I1
tp5340
Rp5341
(I3
S'|'
p5342
NNNI11
I1
I0
tp5343
bS'OR6N1_HUMAN'
p5344
tp5345
Rp5346
ag1
(g2
(S'S11'
p5347
I0
I1
tp5348
Rp5349
(I3
S'|'
p5350
NNNI11
I1
I0
tp5351
bS'OR7AA_HUMAN'
p5352
tp5353
Rp5354
ag1
(g2
(S'S11'
p5355
I0
I1
tp5356
Rp5357
(I3
S'|'
p5358
NNNI11
I1
I0
tp5359
bS'OR7C1_HUMAN'
p5360
tp5361
Rp5362
ag1
(g2
(S'S11'
p5363
I0
I1
tp5364
Rp5365
(I3
S'|'
p5366
NNNI11
I1
I0
tp5367
bS'OR7D4_HUMAN'
p5368
tp5369
Rp5370
ag1
(g2
(S'S11'
p5371
I0
I1
tp5372
Rp5373
(I3
S'|'
p5374
NNNI11
I1
I0
tp5375
bS'OR8D1_HUMAN'
p5376
tp5377
Rp5378
ag1
(g2
(S'S11'
p5379
I0
I1
tp5380
Rp5381
(I3
S'|'
p5382
NNNI11
I1
I0
tp5383
bS'OR8G1_HUMAN'
p5384
tp5385
Rp5386
ag1
(g2
(S'S11'
p5387
I0
I1
tp5388
Rp5389
(I3
S'|'
p5390
NNNI11
I1
I0
tp5391
bS'OR8J3_HUMAN'
p5392
tp5393
Rp5394
ag1
(g2
(S'S11'
p5395
I0
I1
tp5396
Rp5397
(I3
S'|'
p5398
NNNI11
I1
I0
tp5399
bS'OR8U1_HUMAN'
p5400
tp5401
Rp5402
ag1
(g2
(S'S11'
p5403
I0
I1
tp5404
Rp5405
(I3
S'|'
p5406
NNNI11
I1
I0
tp5407
bS'OR9A2_HUMAN'
p5408
tp5409
Rp5410
ag1
(g2
(S'S11'
p5411
I0
I1
tp5412
Rp5413
(I3
S'|'
p5414
NNNI11
I1
I0
tp5415
bS'P2Y14_HUMAN'
p5416
tp5417
Rp5418
ag1
(g2
(S'S11'
p5419
I0
I1
tp5420
Rp5421
(I3
S'|'
p5422
NNNI11
I1
I0
tp5423
bS'P2Y11_HUMAN'
p5424
tp5425
Rp5426
ag1
(g2
(S'S11'
p5427
I0
I1
tp5428
Rp5429
(I3
S'|'
p5430
NNNI11
I1
I0
tp5431
bS'O10A3_HUMAN'
p5432
tp5433
Rp5434
ag1
(g2
(S'S11'
p5435
I0
I1
tp5436
Rp5437
(I3
S'|'
p5438
NNNI11
I1
I0
tp5439
bS'O10A7_HUMAN'
p5440
tp5441
Rp5442
ag1
(g2
(S'S11'
p5443
I0
I1
tp5444
Rp5445
(I3
S'|'
p5446
NNNI11
I1
I0
tp5447
bS'O10C1_HUMAN'
p5448
tp5449
Rp5450
ag1
(g2
(S'S11'
p5451
I0
I1
tp5452
Rp5453
(I3
S'|'
p5454
NNNI11
I1
I0
tp5455
bS'O10G9_HUMAN'
p5456
tp5457
Rp5458
ag1
(g2
(S'S11'
p5459
I0
I1
tp5460
Rp5461
(I3
S'|'
p5462
NNNI11
I1
I0
tp5463
bS'O10P1_HUMAN'
p5464
tp5465
Rp5466
ag1
(g2
(S'S11'
p5467
I0
I1
tp5468
Rp5469
(I3
S'|'
p5470
NNNI11
I1
I0
tp5471
bS'O10V1_HUMAN'
p5472
tp5473
Rp5474
ag1
(g2
(S'S11'
p5475
I0
I1
tp5476
Rp5477
(I3
S'|'
p5478
NNNI11
I1
I0
tp5479
bS'O14A2_HUMAN'
p5480
tp5481
Rp5482
ag1
(g2
(S'S11'
p5483
I0
I1
tp5484
Rp5485
(I3
S'|'
p5486
NNNI11
I1
I0
tp5487
bS'O14J1_HUMAN'
p5488
tp5489
Rp5490
ag1
(g2
(S'S11'
p5491
I0
I1
tp5492
Rp5493
(I3
S'|'
p5494
NNNI11
I1
I0
tp5495
bS'P2Y10_HUMAN'
p5496
tp5497
Rp5498
ag1
(g2
(S'S11'
p5499
I0
I1
tp5500
Rp5501
(I3
S'|'
p5502
NNNI11
I1
I0
tp5503
bS'P2RY1_HUMAN'
p5504
tp5505
Rp5506
ag1
(g2
(S'S11'
p5507
I0
I1
tp5508
Rp5509
(I3
S'|'
p5510
NNNI11
I1
I0
tp5511
bS'P2RY6_HUMAN'
p5512
tp5513
Rp5514
ag1
(g2
(S'S10'
p5515
I0
I1
tp5516
Rp5517
(I3
S'|'
p5518
NNNI10
I1
I0
tp5519
bS'PAR3_HUMAN'
p5520
tp5521
Rp5522
ag1
(g2
(S'S10'
p5523
I0
I1
tp5524
Rp5525
(I3
S'|'
p5526
NNNI10
I1
I0
tp5527
bS'PD2R_HUMAN'
p5528
tp5529
Rp5530
ag1
(g2
(S'S11'
p5531
I0
I1
tp5532
Rp5533
(I3
S'|'
p5534
NNNI11
I1
I0
tp5535
bS'PTH2R_HUMAN'
p5536
tp5537
Rp5538
ag1
(g2
(S'S10'
p5539
I0
I1
tp5540
Rp5541
(I3
S'|'
p5542
NNNI10
I1
I0
tp5543
bS'PSYR_HUMAN'
p5544
tp5545
Rp5546
ag1
(g2
(S'S11'
p5547
I0
I1
tp5548
Rp5549
(I3
S'|'
p5550
NNNI11
I1
I0
tp5551
bS'S1PR4_HUMAN'
p5552
tp5553
Rp5554
ag1
(g2
(S'S11'
p5555
I0
I1
tp5556
Rp5557
(I3
S'|'
p5558
NNNI11
I1
I0
tp5559
bS'S1PR1_HUMAN'
p5560
tp5561
Rp5562
ag1
(g2
(S'S11'
p5563
I0
I1
tp5564
Rp5565
(I3
S'|'
p5566
NNNI11
I1
I0
tp5567
bS'S1PR3_HUMAN'
p5568
tp5569
Rp5570
ag1
(g2
(S'S11'
p5571
I0
I1
tp5572
Rp5573
(I3
S'|'
p5574
NNNI11
I1
I0
tp5575
bS'S1PR2_HUMAN'
p5576
tp5577
Rp5578
ag1
(g2
(S'S10'
p5579
I0
I1
tp5580
Rp5581
(I3
S'|'
p5582
NNNI10
I1
I0
tp5583
bS'SCTR_HUMAN'
p5584
tp5585
Rp5586
ag1
(g2
(S'S11'
p5587
I0
I1
tp5588
Rp5589
(I3
S'|'
p5590
NNNI11
I1
I0
tp5591
bS'S1PR5_HUMAN'
p5592
tp5593
Rp5594
ag1
(g2
(S'S11'
p5595
I0
I1
tp5596
Rp5597
(I3
S'|'
p5598
NNNI11
I1
I0
tp5599
bS'RXFP1_HUMAN'
p5600
tp5601
Rp5602
ag1
(g2
(S'S11'
p5603
I0
I1
tp5604
Rp5605
(I3
S'|'
p5606
NNNI11
I1
I0
tp5607
bS'RXFP2_HUMAN'
p5608
tp5609
Rp5610
ag1
(g2
(S'S11'
p5611
I0
I1
tp5612
Rp5613
(I3
S'|'
p5614
NNNI11
I1
I0
tp5615
bS'SUCR1_HUMAN'
p5616
tp5617
Rp5618
ag1
(g2
(S'S11'
p5619
I0
I1
tp5620
Rp5621
(I3
S'|'
p5622
NNNI11
I1
I0
tp5623
bS'T2R10_HUMAN'
p5624
tp5625
Rp5626
ag1
(g2
(S'S11'
p5627
I0
I1
tp5628
Rp5629
(I3
S'|'
p5630
NNNI11
I1
I0
tp5631
bS'TA2R3_HUMAN'
p5632
tp5633
Rp5634
ag1
(g2
(S'S11'
p5635
I0
I1
tp5636
Rp5637
(I3
S'|'
p5638
NNNI11
I1
I0
tp5639
bS'TA2R5_HUMAN'
p5640
tp5641
Rp5642
ag1
(g2
(S'S11'
p5643
I0
I1
tp5644
Rp5645
(I3
S'|'
p5646
NNNI11
I1
I0
tp5647
bS'TAAR8_HUMAN'
p5648
tp5649
Rp5650
ag1
(g2
(S'S11'
p5651
I0
I1
tp5652
Rp5653
(I3
S'|'
p5654
NNNI11
I1
I0
tp5655
bS'T2R19_HUMAN'
p5656
tp5657
Rp5658
ag1
(g2
(S'S11'
p5659
I0
I1
tp5660
Rp5661
(I3
S'|'
p5662
NNNI11
I1
I0
tp5663
bS'T2R39_HUMAN'
p5664
tp5665
Rp5666
ag1
(g2
(S'S11'
p5667
I0
I1
tp5668
Rp5669
(I3
S'|'
p5670
NNNI11
I1
I0
tp5671
bS'T2R43_HUMAN'
p5672
tp5673
Rp5674
ag1
(g2
(S'S11'
p5675
I0
I1
tp5676
Rp5677
(I3
S'|'
p5678
NNNI11
I1
I0
tp5679
bS'T2R46_HUMAN'
p5680
tp5681
Rp5682
ag1
(g2
(S'S11'
p5683
I0
I1
tp5684
Rp5685
(I3
S'|'
p5686
NNNI11
I1
I0
tp5687
bS'T2R16_HUMAN'
p5688
tp5689
Rp5690
ag1
(g2
(S'S11'
p5691
I0
I1
tp5692
Rp5693
(I3
S'|'
p5694
NNNI11
I1
I0
tp5695
bS'T2R20_HUMAN'
p5696
tp5697
Rp5698
ag1
(g2
(S'S11'
p5699
I0
I1
tp5700
Rp5701
(I3
S'|'
p5702
NNNI11
I1
I0
tp5703
bS'T2R30_HUMAN'
p5704
tp5705
Rp5706
ag1
(g2
(S'S11'
p5707
I0
I1
tp5708
Rp5709
(I3
S'|'
p5710
NNNI11
I1
I0
tp5711
bS'T2R38_HUMAN'
p5712
tp5713
Rp5714
ag1
(g2
(S'S11'
p5715
I0
I1
tp5716
Rp5717
(I3
S'|'
p5718
NNNI11
I1
I0
tp5719
bS'T2R40_HUMAN'
p5720
tp5721
Rp5722
ag1
(g2
(S'S11'
p5723
I0
I1
tp5724
Rp5725
(I3
S'|'
p5726
NNNI11
I1
I0
tp5727
bS'T2R45_HUMAN'
p5728
tp5729
Rp5730
ag1
(g2
(S'S11'
p5731
I0
I1
tp5732
Rp5733
(I3
S'|'
p5734
NNNI11
I1
I0
tp5735
bS'T2R60_HUMAN'
p5736
tp5737
Rp5738
ag1
(g2
(S'S11'
p5739
I0
I1
tp5740
Rp5741
(I3
S'|'
p5742
NNNI11
I1
I0
tp5743
bS'TA2R8_HUMAN'
p5744
tp5745
Rp5746
ag1
(g2
(S'S11'
p5747
I0
I1
tp5748
Rp5749
(I3
S'|'
p5750
NNNI11
I1
I0
tp5751
bS'TA2R9_HUMAN'
p5752
tp5753
Rp5754
ag1
(g2
(S'S10'
p5755
I0
I1
tp5756
Rp5757
(I3
S'|'
p5758
NNNI10
I1
I0
tp5759
bS'TA2R_HUMAN'
p5760
tp5761
Rp5762
ag1
(g2
(S'S11'
p5763
I0
I1
tp5764
Rp5765
(I3
S'|'
p5766
NNNI11
I1
I0
tp5767
bS'TAAR3_HUMAN'
p5768
tp5769
Rp5770
ag1
(g2
(S'S11'
p5771
I0
I1
tp5772
Rp5773
(I3
S'|'
p5774
NNNI11
I1
I0
tp5775
bS'TAAR5_HUMAN'
p5776
tp5777
Rp5778
ag1
(g2
(S'S11'
p5779
I0
I1
tp5780
Rp5781
(I3
S'|'
p5782
NNNI11
I1
I0
tp5783
bS'T2R14_HUMAN'
p5784
tp5785
Rp5786
ag1
(g2
(S'S11'
p5787
I0
I1
tp5788
Rp5789
(I3
S'|'
p5790
NNNI11
I1
I0
tp5791
bS'T2R31_HUMAN'
p5792
tp5793
Rp5794
ag1
(g2
(S'S11'
p5795
I0
I1
tp5796
Rp5797
(I3
S'|'
p5798
NNNI11
I1
I0
tp5799
bS'T2R42_HUMAN'
p5800
tp5801
Rp5802
ag1
(g2
(S'S11'
p5803
I0
I1
tp5804
Rp5805
(I3
S'|'
p5806
NNNI11
I1
I0
tp5807
bS'T2R50_HUMAN'
p5808
tp5809
Rp5810
ag1
(g2
(S'S11'
p5811
I0
I1
tp5812
Rp5813
(I3
S'|'
p5814
NNNI11
I1
I0
tp5815
bS'TA2R4_HUMAN'
p5816
tp5817
Rp5818
ag1
(g2
(S'S11'
p5819
I0
I1
tp5820
Rp5821
(I3
S'|'
p5822
NNNI11
I1
I0
tp5823
bS'TAAR2_HUMAN'
p5824
tp5825
Rp5826
ag1
(g2
(S'S11'
p5827
I0
I1
tp5828
Rp5829
(I3
S'|'
p5830
NNNI11
I1
I0
tp5831
bS'TA2R1_HUMAN'
p5832
tp5833
Rp5834
ag1
(g2
(S'S11'
p5835
I0
I1
tp5836
Rp5837
(I3
S'|'
p5838
NNNI11
I1
I0
tp5839
bS'TA2R7_HUMAN'
p5840
tp5841
Rp5842
ag1
(g2
(S'S11'
p5843
I0
I1
tp5844
Rp5845
(I3
S'|'
p5846
NNNI11
I1
I0
tp5847
bS'TAAR1_HUMAN'
p5848
tp5849
Rp5850
ag1
(g2
(S'S11'
p5851
I0
I1
tp5852
Rp5853
(I3
S'|'
p5854
NNNI11
I1
I0
tp5855
bS'T2R13_HUMAN'
p5856
tp5857
Rp5858
ag1
(g2
(S'S11'
p5859
I0
I1
tp5860
Rp5861
(I3
S'|'
p5862
NNNI11
I1
I0
tp5863
bS'T2R41_HUMAN'
p5864
tp5865
Rp5866
ag1
(g2
(S'S11'
p5867
I0
I1
tp5868
Rp5869
(I3
S'|'
p5870
NNNI11
I1
I0
tp5871
bS'TAAR6_HUMAN'
p5872
tp5873
Rp5874
ag1
(g2
(S'S11'
p5875
I0
I1
tp5876
Rp5877
(I3
S'|'
p5878
NNNI11
I1
I0
tp5879
bS'TAAR9_HUMAN'
p5880
tp5881
Rp5882
a.